

Microchip MPLAB XC8 Assembler V2.36 build 20220127204148 
                                                                                               Mon Dec 19 11:17:20 2022

Microchip MPLAB XC8 C Compiler v2.36 (Free license) build 20220127204148 Og1 
     1                           	processor	18F46K42
     2                           	fnconf	rparam,??,?,0
     3                           	pagewidth 120
     4                           	opt	flic
     5                           	psect	smallconst,global,reloc=2,class=SMALLCONST,delta=1,noexec
     6                           	psect	nvCOMRAM,global,class=COMRAM,space=1,delta=1,lowdata,noexec
     7                           	psect	cinit,global,reloc=2,class=CODE,delta=1
     8                           	psect	bssCOMRAM,global,class=COMRAM,space=1,delta=1,lowdata,noexec
     9                           	psect	bssBIGRAM,global,class=BIGRAM,space=1,delta=1,noexec
    10                           	psect	cstackCOMRAM,global,class=COMRAM,space=1,delta=1,lowdata,noexec
    11                           	psect	text0,global,reloc=2,class=CODE,delta=1
    12                           	psect	text1,global,reloc=2,class=CODE,delta=1,group=1
    13                           	psect	text2,global,reloc=2,class=CODE,delta=1
    14                           	psect	text3,global,reloc=2,class=CODE,delta=1
    15                           	psect	text4,global,reloc=2,class=CODE,delta=1
    16                           	psect	text5,global,reloc=2,class=CODE,delta=1
    17                           	psect	text6,global,reloc=2,class=CODE,delta=1
    18                           	psect	text7,global,reloc=2,class=CODE,delta=1
    19                           	psect	text8,global,reloc=2,class=CODE,delta=1
    20                           	psect	text9,global,reloc=2,class=CODE,delta=1
    21                           	psect	text10,global,reloc=2,class=CODE,delta=1
    22                           	psect	text11,global,reloc=2,class=CODE,delta=1
    23                           	psect	text12,global,reloc=2,class=CODE,delta=1
    24                           	psect	text13,global,reloc=2,class=CODE,delta=1
    25                           	psect	text14,global,reloc=2,class=CODE,delta=1
    26                           	psect	text15,global,reloc=2,class=CODE,delta=1
    27                           	psect	text16,global,reloc=2,class=CODE,delta=1
    28                           	psect	text17,global,reloc=2,class=CODE,delta=1
    29                           	psect	text18,global,reloc=2,class=CODE,delta=1
    30                           	psect	text19,global,reloc=2,class=CODE,delta=1
    31                           	psect	ivt0x8,global,reloc=2,class=CODE,delta=1,noexec,keep,optim=
    32                           	psect	intsave_regs,global,class=BIGRAM,space=1,delta=1,noexec
    33                           	psect	text20,global,reloc=2,class=CODE,delta=1
    34                           	psect	rparam,global,class=COMRAM,space=1,delta=1,noexec
    35                           	psect	idloc,global,abs,ovrld,class=IDLOC,space=5,delta=1,noexec
    36                           	psect	config,global,abs,ovrld,class=CONFIG,space=4,delta=1,noexec
    37  0000                     
    38                           ; Version 2.35
    39                           ; Generated 05/05/2021 GMT
    40                           ; 
    41                           ; Copyright © 2021, Microchip Technology Inc. and its subsidiaries ("Microchip")
    42                           ; All rights reserved.
    43                           ; 
    44                           ; This software is developed by Microchip Technology Inc. and its subsidiaries ("Microch
      +                          ip").
    45                           ; 
    46                           ; Redistribution and use in source and binary forms, with or without modification, are
    47                           ; permitted provided that the following conditions are met:
    48                           ; 
    49                           ;     1. Redistributions of source code must retain the above copyright notice, this lis
      +                          t of
    50                           ;        conditions and the following disclaimer.
    51                           ; 
    52                           ;     2. Redistributions in binary form must reproduce the above copyright notice, this 
      +                          list
    53                           ;        of conditions and the following disclaimer in the documentation and/or other
    54                           ;        materials provided with the distribution. Publication is not required when
    55                           ;        this file is used in an embedded application.
    56                           ; 
    57                           ;     3. Microchip's name may not be used to endorse or promote products derived from th
      +                          is
    58                           ;        software without specific prior written permission.
    59                           ; 
    60                           ; THIS SOFTWARE IS PROVIDED BY MICROCHIP "AS IS" AND ANY EXPRESS OR IMPLIED WARRANTIES,
    61                           ; INCLUDING, BUT NOT LIMITED TO, THE IMPLIED WARRANTIES OF MERCHANTABILITY AND FITNESS F
      +                          OR
    62                           ; PURPOSE ARE DISCLAIMED.  IN NO EVENT SHALL MICROCHIP BE LIABLE FOR ANY DIRECT, INDIREC
      +                          T,
    63                           ; INCIDENTAL, SPECIAL, EXEMPLARY, OR CONSEQUENTIAL DAMAGES (INCLUDING BUT NOT LIMITED TO
    64                           ; PROCUREMENT OF SUBSTITUTE GOODS OR SERVICES; LOSS OF USE, DATA OR PROFITS; OR BUSINESS
    65                           ; INTERRUPTION) HOWSOEVER CAUSED AND ON ANY THEORY OF LIABILITY, WHETHER IN CONTRACT, ST
      +                          RICT
    66                           ; LIABILITY, OR TORT (INCLUDING NEGLIGENCE OR OTHERWISE) ARISING IN ANY WAY OUT OF THE U
      +                          SE OF
    67                           ; THIS SOFTWARE, EVEN IF ADVISED OF THE POSSIBILITY OF SUCH DAMAGE.
    68                           ; 
    69                           ; 
    70                           ; Code-generator required, PIC18F46K42 Definitions
    71                           ; 
    72                           ; SFR Addresses
    73  0000                     
    74                           	psect	smallconst
    75  001000                     __psmallconst:
    76                           	callstack 0
    77  001000  00                 	db	0
    78  001001  83                 	db	131
    79  001002  00                 	db	0
    80  001003  02                 	db	2
    81  001004  00                 	db	0
    82  001005  00                 	db	0
    83  001006                     __end_of_spi1_configuration:
    84                           	callstack 0
    85  0000                     _T0CON0	set	16312
    86  0000                     _PIR3bits	set	14755
    87  0000                     _T2CON	set	16300
    88  0000                     _PIR4bits	set	14756
    89  0000                     _DMA1AIRQ	set	15358
    90  0000                     _DMA1SIRQ	set	15359
    91  0000                     _DMA1CON1bits	set	15357
    92  0000                     _TRISD	set	16325
    93  0000                     _TRISC	set	16324
    94  0000                     _TRISB	set	16323
    95  0000                     _LATC	set	16316
    96  0000                     _LATB	set	16315
    97  0000                     _OSCTUNE	set	14814
    98  0000                     _OSCFRQ	set	14815
    99  0000                     _SPI1TXB	set	15633
   100  001006  00                 	db	0	; dummy byte at the end
   101  0000                     
   102                           	psect	nvCOMRAM
   103  00004A                     __pnvCOMRAM:
   104                           	callstack 0
   105  00004A                     _DMA1_SCNTI_InterruptHandler:
   106                           	callstack 0
   107  00004A                     	ds	2
   108  0000                     _PRLOCKbits	set	14831
   109  0000                     _DMA1CON0bits	set	15356
   110  0000                     _TRISCbits	set	16324
   111  0000                     _LATCbits	set	16316
   112  0000                     _PIE2bits	set	14738
   113  0000                     _PIR2bits	set	14754
   114  0000                     _PMD0	set	14784
   115  0000                     _OSCCON1	set	14809
   116  0000                     _OSCCON3	set	14811
   117  0000                     _OSCEN	set	14813
   118  0000                     _PRLOCK	set	14831
   119  0000                     _PMD7	set	14791
   120  0000                     _PMD6	set	14790
   121  0000                     _PMD5	set	14789
   122  0000                     _PMD4	set	14788
   123  0000                     _PMD3	set	14787
   124  0000                     _PMD2	set	14786
   125  0000                     _PMD1	set	14785
   126  0000                     _ISRPR	set	14833
   127  0000                     _MAINPR	set	14834
   128  0000                     _RC0PPS	set	14864
   129  0000                     _ANSELA	set	14912
   130  0000                     _ANSELB	set	14928
   131  0000                     _ANSELC	set	14944
   132  0000                     _ANSELD	set	14960
   133  0000                     _LATA	set	16314
   134  0000                     _LATD	set	16317
   135  0000                     _LATE	set	16318
   136  0000                     _TRISA	set	16322
   137  0000                     _TRISE	set	16326
   138  0000                     _INTCON0bits	set	16338
   139  0000                     _INLVLD	set	14964
   140  0000                     _SLRCOND	set	14963
   141  0000                     _ODCOND	set	14962
   142  0000                     _RD0I2C	set	14970
   143  0000                     _WPUD	set	14961
   144  0000                     _ANSELE	set	14976
   145  0000                     _INLVLC	set	14948
   146  0000                     _SLRCONC	set	14947
   147  0000                     _ODCONC	set	14946
   148  0000                     _RC3I2C	set	14954
   149  0000                     _WPUC	set	14945
   150  0000                     _INLVLB	set	14932
   151  0000                     _SLRCONB	set	14931
   152  0000                     _ODCONB	set	14930
   153  0000                     _RB1I2C	set	14938
   154  0000                     _WPUB	set	14929
   155  0000                     _CLCIN0PPS	set	15065
   156  0000                     _SPI1SCKPPS	set	15070
   157  0000                     _INLVLE	set	14980
   158  0000                     _SLRCONE	set	14979
   159  0000                     _ODCONE	set	14978
   160  0000                     _WPUE	set	14977
   161  0000                     _INLVLA	set	14916
   162  0000                     _SLRCONA	set	14915
   163  0000                     _ODCONA	set	14914
   164  0000                     _WPUA	set	14913
   165  0000                     _RB2I2C	set	14939
   166  0000                     _RC4I2C	set	14955
   167  0000                     _RD1I2C	set	14971
   168  0000                     _RC3PPS	set	14867
   169  0000                     _DMA1SSA	set	15353
   170  0000                     _DMA1DSZ	set	15342
   171  0000                     _DMA1DSA	set	15344
   172  0000                     _DMA1CON0	set	15356
   173  0000                     _SPI1SDIPPS	set	15071
   174  0000                     _DMA1SSZ	set	15351
   175  0000                     _SPI1CON0	set	15636
   176  0000                     _CCPTMRS1bits	set	16223
   177  0000                     _PWM5DCL	set	16236
   178  0000                     _PWM5DCH	set	16237
   179  0000                     _PWM5CON	set	16238
   180  0000                     _CLC2CON	set	15466
   181  0000                     _CLC2POL	set	15467
   182  0000                     _SCANPR	set	14839
   183  0000                     _DMA2PR	set	14836
   184  0000                     _DMA1PR	set	14835
   185  0000                     _T2TMR	set	16298
   186  0000                     _T2PR	set	16299
   187  0000                     _T2HLT	set	16301
   188  0000                     _T2CLKCON	set	16302
   189  0000                     _SPI1BAUD	set	15641
   190  0000                     _SPI1CLK	set	15644
   191  0000                     _SPI1CON2	set	15638
   192  0000                     _SPI1CON1	set	15637
   193  0000                     _SPI1INTFbits	set	15642
   194  0000                     _TMR0L	set	16310
   195  0000                     _TMR0H	set	16311
   196  0000                     _T0CON1	set	16313
   197  0000                     _T2RST	set	16303
   198  0000                     _CLC2GLS3	set	15475
   199  0000                     _CLC2GLS2	set	15474
   200  0000                     _CLC2GLS1	set	15473
   201  0000                     _CLC2GLS0	set	15472
   202  0000                     _CLC2SEL3	set	15471
   203  0000                     _CLC2SEL2	set	15470
   204  0000                     _CLC2SEL1	set	15469
   205  0000                     _CLC2SEL0	set	15468
   206                           
   207                           ; #config settings
   208                           
   209                           	psect	cinit
   210  0013D6                     __pcinit:
   211                           	callstack 0
   212  0013D6                     start_initialization:
   213                           	callstack 0
   214  0013D6                     __initialization:
   215                           	callstack 0
   216                           
   217                           ; Clear objects allocated to BIGRAM (720 bytes)
   218  0013D6  EE03  F130         	lfsr	0,__pbssBIGRAM
   219  0013DA  EE10 F2D0          	lfsr	1,720
   220  0013DE                     clear_0:
   221  0013DE  6AEE               	clrf	postinc0,c
   222  0013E0  50E5               	movf	postdec1,w,c
   223  0013E2  50E1               	movf	fsr1l,w,c
   224  0013E4  E1FC               	bnz	clear_0
   225  0013E6  50E2               	movf	fsr1h,w,c
   226  0013E8  E1FA               	bnz	clear_0
   227                           
   228                           ; Clear objects allocated to COMRAM (48 bytes)
   229  0013EA  EE00  F001         	lfsr	0,__pbssCOMRAM
   230  0013EE  0E30               	movlw	48
   231  0013F0                     clear_1:
   232  0013F0  6AEE               	clrf	postinc0,c
   233  0013F2  06E8               	decf	wreg,f,c
   234  0013F4  E1FD               	bnz	clear_1
   235                           
   236                           ;
   237                           ; Setup IVTBASE
   238                           ;
   239  0013F6  0E08               	movlw	(ivt0x8_base shr 0)& (0+255)
   240  0013F8  6ED5               	movwf	213,c
   241  0013FA  0E00               	movlw	(ivt0x8_base shr (0+8))& (0+255)
   242  0013FC  6ED6               	movwf	214,c
   243  0013FE  0E00               	movlw	(ivt0x8_base shr (0+16))& (0+255)
   244  001400  6ED7               	movwf	215,c
   245  001402                     end_of_initialization:
   246                           	callstack 0
   247  001402                     __end_of__initialization:
   248                           	callstack 0
   249  001402  0100               	movlb	0
   250  001404  EF04  F008         	goto	_main	;jump to C main() function
   251                           
   252                           	psect	bssCOMRAM
   253  000001                     __pbssCOMRAM:
   254                           	callstack 0
   255  000001                     _Ball_1:
   256                           	callstack 0
   257  000001                     	ds	11
   258  00000C                     _DstVarName0:
   259                           	callstack 0
   260  00000C                     	ds	10
   261  000016                     _SrcVarName0:
   262                           	callstack 0
   263  000016                     	ds	10
   264  000020                     _m_milli_sec_count:
   265                           	callstack 0
   266  000020                     	ds	4
   267  000024                     _m_milli_sec_time:
   268                           	callstack 0
   269  000024                     	ds	4
   270  000028                     _demo_length:
   271                           	callstack 0
   272  000028                     	ds	2
   273  00002A                     DMA1_DefaultInterruptHandler@led_index:
   274                           	callstack 0
   275  00002A                     	ds	2
   276  00002C                     _demo_state:
   277                           	callstack 0
   278  00002C                     	ds	1
   279  00002D                     _l_blue:
   280                           	callstack 0
   281  00002D                     	ds	1
   282  00002E                     _l_red:
   283                           	callstack 0
   284  00002E                     	ds	1
   285  00002F                     _l_green:
   286                           	callstack 0
   287  00002F                     	ds	1
   288  000030                     _int_state:
   289                           	callstack 0
   290  000030                     	ds	1
   291                           
   292                           	psect	bssBIGRAM
   293  000D30                     __pbssBIGRAM:
   294                           	callstack 0
   295  000D30                     _MyPixelArray:
   296                           	callstack 0
   297  000D30                     	ds	720
   298                           
   299                           	psect	cstackCOMRAM
   300  000031                     __pcstackCOMRAM:
   301                           	callstack 0
   302  000031                     ?i2___wmul:
   303                           	callstack 0
   304  000031                     i2___wmul@multiplier:
   305                           	callstack 0
   306                           
   307                           ; 2 bytes @ 0x0
   308  000031                     	ds	2
   309  000033                     i2___wmul@multiplicand:
   310                           	callstack 0
   311                           
   312                           ; 2 bytes @ 0x2
   313  000033                     	ds	2
   314  000035                     i2___wmul@product:
   315                           	callstack 0
   316                           
   317                           ; 2 bytes @ 0x4
   318  000035                     	ds	2
   319  000037                     ??_DMA1_DefaultInterruptHandler:
   320                           
   321                           ; 1 bytes @ 0x6
   322  000037                     	ds	2
   323  000039                     DMA1_DefaultInterruptHandler@check:
   324                           	callstack 0
   325                           
   326                           ; 2 bytes @ 0x8
   327  000039                     	ds	2
   328  00003B                     DMA1_DefaultInterruptHandler@dma_size:
   329                           	callstack 0
   330                           
   331                           ; 2 bytes @ 0xA
   332  00003B                     	ds	2
   333  00003D                     ??_INTERRUPT_InterruptManager:
   334                           
   335                           ; 1 bytes @ 0xC
   336  00003D                     	ds	2
   337  00003F                     ?___wmul:
   338                           	callstack 0
   339  00003F                     TMR2_HasOverflowOccured@status:
   340                           	callstack 0
   341  00003F                     DMA1_SetSCNTIInterruptHandler@InterruptHandler:
   342                           	callstack 0
   343  00003F                     ___wmul@multiplier:
   344                           	callstack 0
   345                           
   346                           ; 2 bytes @ 0xE
   347  00003F                     	ds	2
   348  000041                     ??_DMA1_Initialize:
   349  000041                     ___wmul@multiplicand:
   350                           	callstack 0
   351                           
   352                           ; 2 bytes @ 0x10
   353  000041                     	ds	1
   354  000042                     
   355                           ; 1 bytes @ 0x11
   356  000042                     	ds	1
   357  000043                     ___wmul@product:
   358                           	callstack 0
   359                           
   360                           ; 2 bytes @ 0x12
   361  000043                     	ds	2
   362  000045                     ??_main:
   363                           
   364                           ; 1 bytes @ 0x14
   365  000045                     	ds	1
   366  000046                     main@m_calib_milli_sec:
   367                           	callstack 0
   368                           
   369                           ; 2 bytes @ 0x15
   370  000046                     	ds	2
   371  000048                     main@ix:
   372                           	callstack 0
   373                           
   374                           ; 2 bytes @ 0x17
   375  000048                     	ds	2
   376                           
   377 ;;
   378 ;;Main: autosize = 0, tempsize = 1, incstack = 0, save=0
   379 ;;
   380 ;; *************** function _main *****************
   381 ;; Defined at:
   382 ;;		line 78 in file "main.c"
   383 ;; Parameters:    Size  Location     Type
   384 ;;		None
   385 ;; Auto vars:     Size  Location     Type
   386 ;;  m_calib_mill    2   21[COMRAM] unsigned short 
   387 ;;  ix              2   23[COMRAM] short 
   388 ;; Return value:  Size  Location     Type
   389 ;;                  1    wreg      void 
   390 ;; Registers used:
   391 ;;		wreg, fsr2l, fsr2h, status,2, status,0, prodl, prodh, cstack
   392 ;; Tracked objects:
   393 ;;		On entry : 0/0
   394 ;;		On exit  : 0/0
   395 ;;		Unchanged: 0/0
   396 ;; Data sizes:     COMRAM   BANK0   BANK1   BANK2   BANK3   BANK4   BANK5   BANK6   BANK7   BANK8   BANK9  BANK10  BANK1
      +1  BANK12  BANK13  BANK14  BANK15
   397 ;;      Params:         0       0       0       0       0       0       0       0       0       0       0       0       
      +0       0       0       0       0
   398 ;;      Locals:         4       0       0       0       0       0       0       0       0       0       0       0       
      +0       0       0       0       0
   399 ;;      Temps:          1       0       0       0       0       0       0       0       0       0       0       0       
      +0       0       0       0       0
   400 ;;      Totals:         5       0       0       0       0       0       0       0       0       0       0       0       
      +0       0       0       0       0
   401 ;;Total ram usage:        5 bytes
   402 ;; Hardware stack levels required when called: 7
   403 ;; This function calls:
   404 ;;		_SYSTEM_Initialize
   405 ;;		_TMR2_HasOverflowOccured
   406 ;;		___wmul
   407 ;; This function is called by:
   408 ;;		Startup code after reset
   409 ;; This function uses a non-reentrant model
   410 ;;
   411                           
   412                           	psect	text0
   413  001008                     __ptext0:
   414                           	callstack 0
   415  001008                     _main:
   416                           	callstack 24
   417  001008                     
   418                           ;main.c: 79:     int16_t ix;;main.c: 83:     SYSTEM_Initialize();
   419  001008  EC1C  F00A         	call	_SYSTEM_Initialize	;wreg free
   420  00100C                     
   421                           ;main.c: 91:     (INTCON0bits.GIE = 1);
   422  00100C  8ED2               	bsf	210,7,c	;volatile
   423  00100E                     
   424                           ;main.c: 97:     for (ix = 0; ix < 240; ix++) {
   425  00100E  0E00               	movlw	0
   426  001010  6E49               	movwf	(main@ix+1)^0,c
   427  001012  0E00               	movlw	0
   428  001014  6E48               	movwf	main@ix^0,c
   429  001016                     l1574:
   430                           
   431                           ;main.c: 98:         MyPixelArray.Frame[ix][0] = 0;
   432  001016  C048  F03F         	movff	main@ix,___wmul@multiplier
   433  00101A  C049  F040         	movff	main@ix+1,___wmul@multiplier+1
   434  00101E  0E00               	movlw	0
   435  001020  6E42               	movwf	(___wmul@multiplicand+1)^0,c
   436  001022  0E03               	movlw	3
   437  001024  6E41               	movwf	___wmul@multiplicand^0,c
   438  001026  EC5F  F00A         	call	___wmul	;wreg free
   439  00102A  0E30               	movlw	low _MyPixelArray
   440  00102C  243F               	addwf	?___wmul^0,w,c
   441  00102E  6ED9               	movwf	fsr2l,c
   442  001030  0E0D               	movlw	high _MyPixelArray
   443  001032  2040               	addwfc	(?___wmul+1)^0,w,c
   444  001034  6EDA               	movwf	fsr2h,c
   445  001036  0E00               	movlw	0
   446  001038  6EDF               	movwf	indf2,c
   447                           
   448                           ;main.c: 99:         MyPixelArray.Frame[ix][1] = 0;
   449  00103A  C048  F03F         	movff	main@ix,___wmul@multiplier
   450  00103E  C049  F040         	movff	main@ix+1,___wmul@multiplier+1
   451  001042  0E00               	movlw	0
   452  001044  6E42               	movwf	(___wmul@multiplicand+1)^0,c
   453  001046  0E03               	movlw	3
   454  001048  6E41               	movwf	___wmul@multiplicand^0,c
   455  00104A  EC5F  F00A         	call	___wmul	;wreg free
   456  00104E  0E31               	movlw	low (_MyPixelArray+1)
   457  001050  243F               	addwf	?___wmul^0,w,c
   458  001052  6ED9               	movwf	fsr2l,c
   459  001054  0E0D               	movlw	high (_MyPixelArray+1)
   460  001056  2040               	addwfc	(?___wmul+1)^0,w,c
   461  001058  6EDA               	movwf	fsr2h,c
   462  00105A  0E00               	movlw	0
   463  00105C  6EDF               	movwf	indf2,c
   464                           
   465                           ;main.c: 100:         MyPixelArray.Frame[ix][2] = 0;
   466  00105E  C048  F03F         	movff	main@ix,___wmul@multiplier
   467  001062  C049  F040         	movff	main@ix+1,___wmul@multiplier+1
   468  001066  0E00               	movlw	0
   469  001068  6E42               	movwf	(___wmul@multiplicand+1)^0,c
   470  00106A  0E03               	movlw	3
   471  00106C  6E41               	movwf	___wmul@multiplicand^0,c
   472  00106E  EC5F  F00A         	call	___wmul	;wreg free
   473  001072  0E32               	movlw	low (_MyPixelArray+2)
   474  001074  243F               	addwf	?___wmul^0,w,c
   475  001076  6ED9               	movwf	fsr2l,c
   476  001078  0E0D               	movlw	high (_MyPixelArray+2)
   477  00107A  2040               	addwfc	(?___wmul+1)^0,w,c
   478  00107C  6EDA               	movwf	fsr2h,c
   479  00107E  0E00               	movlw	0
   480  001080  6EDF               	movwf	indf2,c
   481  001082                     
   482                           ;main.c: 101:     }
   483  001082  4A48               	infsnz	main@ix^0,f,c
   484  001084  2A49               	incf	(main@ix+1)^0,f,c
   485  001086  BE49               	btfsc	(main@ix+1)^0,7,c
   486  001088  EF4F  F008         	goto	u211
   487  00108C  5049               	movf	(main@ix+1)^0,w,c
   488  00108E  E109               	bnz	u210
   489  001090  0EF0               	movlw	240
   490  001092  5C48               	subwf	main@ix^0,w,c
   491  001094  A0D8               	btfss	status,0,c
   492  001096  EF4F  F008         	goto	u211
   493  00109A  EF51  F008         	goto	u210
   494  00109E                     u211:
   495  00109E  EF0B  F008         	goto	l1574
   496  0010A2                     u210:
   497  0010A2                     
   498                           ;main.c: 103:     SPI1INTFbits.SPI1TXUIF = 1;
   499  0010A2  013D               	movlb	61	; () banked
   500  0010A4  831A               	bsf	26,1,b	;volatile
   501  0010A6                     
   502                           ; BSR set to: 61
   503                           ;main.c: 104:     _delay((unsigned long)((10)*(64000000/4000.0)));
   504  0010A6  0ED0               	movlw	208
   505  0010A8  6E45               	movwf	??_main^0,c
   506  0010AA  0ECA               	movlw	202
   507  0010AC                     u257:
   508  0010AC  2EE8               	decfsz	wreg,f,c
   509  0010AE  D7FE               	bra	u257
   510  0010B0  2E45               	decfsz	??_main^0,f,c
   511  0010B2  D7FC               	bra	u257
   512  0010B4                     
   513                           ;main.c: 106:     TRISCbits.TRISC1 = 0;
   514  0010B4  92C4               	bcf	196,1,c	;volatile
   515  0010B6                     
   516                           ;main.c: 107:     m_milli_sec_time = 0;
   517  0010B6  0E00               	movlw	0
   518  0010B8  6E24               	movwf	_m_milli_sec_time^0,c
   519  0010BA  0E00               	movlw	0
   520  0010BC  6E25               	movwf	(_m_milli_sec_time+1)^0,c
   521  0010BE  0E00               	movlw	0
   522  0010C0  6E26               	movwf	(_m_milli_sec_time+2)^0,c
   523  0010C2  0E00               	movlw	0
   524  0010C4  6E27               	movwf	(_m_milli_sec_time+3)^0,c
   525  0010C6                     l1588:
   526                           
   527                           ;main.c: 112:         m_milli_sec_time = 75;
   528  0010C6  0E4B               	movlw	75
   529  0010C8  6E24               	movwf	_m_milli_sec_time^0,c
   530  0010CA  0E00               	movlw	0
   531  0010CC  6E25               	movwf	(_m_milli_sec_time+1)^0,c
   532  0010CE  0E00               	movlw	0
   533  0010D0  6E26               	movwf	(_m_milli_sec_time+2)^0,c
   534  0010D2  0E00               	movlw	0
   535  0010D4  6E27               	movwf	(_m_milli_sec_time+3)^0,c
   536  0010D6                     l1590:
   537                           
   538                           ;main.c: 114:             uint16_t m_calib_milli_sec = 443;
   539  0010D6  0E01               	movlw	1
   540  0010D8  6E47               	movwf	(main@m_calib_milli_sec+1)^0,c
   541  0010DA  0EBB               	movlw	187
   542  0010DC  6E46               	movwf	main@m_calib_milli_sec^0,c
   543  0010DE                     l1592:
   544  0010DE  EC33  F00A         	call	_TMR2_HasOverflowOccured	;wreg free
   545  0010E2  06E8               	decf	wreg,f,c
   546  0010E4  A4D8               	btfss	status,2,c
   547  0010E6  EF77  F008         	goto	u221
   548  0010EA  EF79  F008         	goto	u220
   549  0010EE                     u221:
   550  0010EE  EF6F  F008         	goto	l1592
   551  0010F2                     u220:
   552  0010F2                     
   553                           ;main.c: 117:             } while (--m_calib_milli_sec);
   554  0010F2  0646               	decf	main@m_calib_milli_sec^0,f,c
   555  0010F4  A0D8               	btfss	status,0,c
   556  0010F6  0647               	decf	(main@m_calib_milli_sec+1)^0,f,c
   557  0010F8  5046               	movf	main@m_calib_milli_sec^0,w,c
   558  0010FA  1047               	iorwf	(main@m_calib_milli_sec+1)^0,w,c
   559  0010FC  A4D8               	btfss	status,2,c
   560  0010FE  EF83  F008         	goto	u231
   561  001102  EF85  F008         	goto	u230
   562  001106                     u231:
   563  001106  EF6F  F008         	goto	l1592
   564  00110A                     u230:
   565  00110A                     
   566                           ;main.c: 118:         } while (--m_milli_sec_time);
   567  00110A  0624               	decf	_m_milli_sec_time^0,f,c
   568  00110C  0E00               	movlw	0
   569  00110E  5A25               	subwfb	(_m_milli_sec_time+1)^0,f,c
   570  001110  5A26               	subwfb	(_m_milli_sec_time+2)^0,f,c
   571  001112  5A27               	subwfb	(_m_milli_sec_time+3)^0,f,c
   572  001114  5024               	movf	_m_milli_sec_time^0,w,c
   573  001116  1025               	iorwf	(_m_milli_sec_time+1)^0,w,c
   574  001118  1026               	iorwf	(_m_milli_sec_time+2)^0,w,c
   575  00111A  1027               	iorwf	(_m_milli_sec_time+3)^0,w,c
   576  00111C  A4D8               	btfss	status,2,c
   577  00111E  EF93  F008         	goto	u241
   578  001122  EF95  F008         	goto	u240
   579  001126                     u241:
   580  001126  EF6B  F008         	goto	l1590
   581  00112A                     u240:
   582  00112A                     
   583                           ;main.c: 123:         int_state = 0;
   584  00112A  0E00               	movlw	0
   585  00112C  6E30               	movwf	_int_state^0,c
   586  00112E                     
   587                           ;main.c: 124:         DMA1CON0bits.EN = 0;
   588  00112E  013B               	movlb	59	; () banked
   589  001130  9FFC               	bcf	252,7,b	;volatile
   590                           
   591                           ;main.c: 125:         DMA1SSA = ((uint24_t) & MyPixelArray.Frame[0][0]);
   592  001132  0E30               	movlw	low _MyPixelArray
   593  001134  6FF9               	movwf	249,b	;volatile
   594  001136  0E0D               	movlw	high _MyPixelArray
   595  001138  6FFA               	movwf	250,b	;volatile
   596  00113A  0E00               	movlw	low (_MyPixelArray shr (0+16))
   597  00113C  6FFB               	movwf	251,b	;volatile
   598                           
   599                           ;main.c: 126:         DMA1SSZ = (3 * 250);
   600  00113E  0E02               	movlw	2
   601  001140  6FF8               	movwf	248,b	;volatile
   602  001142  0EEE               	movlw	238
   603  001144  6FF7               	movwf	247,b	;volatile
   604  001146                     
   605                           ; BSR set to: 59
   606                           ;main.c: 127:         DMA1CON0bits.EN = 1;
   607  001146  8FFC               	bsf	252,7,b	;volatile
   608  001148                     
   609                           ; BSR set to: 59
   610                           ;main.c: 128:         LATCbits.LATC1 = 1;
   611  001148  82BC               	bsf	188,1,c	;volatile
   612  00114A                     
   613                           ; BSR set to: 59
   614                           ;main.c: 129:         DMA1CON0bits.DMA1SIRQEN = 1;
   615  00114A  8DFC               	bsf	252,6,b	;volatile
   616  00114C  EF63  F008         	goto	l1588
   617  001150  EF0D  F000         	goto	start
   618  001154                     __end_of_main:
   619                           	callstack 0
   620                           
   621 ;; *************** function ___wmul *****************
   622 ;; Defined at:
   623 ;;		line 15 in file "C:\Program Files\Microchip\xc8\v2.36\pic\sources\c99\common\Umul16.c"
   624 ;; Parameters:    Size  Location     Type
   625 ;;  multiplier      2   14[COMRAM] unsigned int 
   626 ;;  multiplicand    2   16[COMRAM] unsigned int 
   627 ;; Auto vars:     Size  Location     Type
   628 ;;  product         2   18[COMRAM] unsigned int 
   629 ;; Return value:  Size  Location     Type
   630 ;;                  2   14[COMRAM] unsigned int 
   631 ;; Registers used:
   632 ;;		wreg, status,2, status,0, prodl, prodh
   633 ;; Tracked objects:
   634 ;;		On entry : 0/0
   635 ;;		On exit  : 0/0
   636 ;;		Unchanged: 0/0
   637 ;; Data sizes:     COMRAM   BANK0   BANK1   BANK2   BANK3   BANK4   BANK5   BANK6   BANK7   BANK8   BANK9  BANK10  BANK1
      +1  BANK12  BANK13  BANK14  BANK15
   638 ;;      Params:         4       0       0       0       0       0       0       0       0       0       0       0       
      +0       0       0       0       0
   639 ;;      Locals:         2       0       0       0       0       0       0       0       0       0       0       0       
      +0       0       0       0       0
   640 ;;      Temps:          0       0       0       0       0       0       0       0       0       0       0       0       
      +0       0       0       0       0
   641 ;;      Totals:         6       0       0       0       0       0       0       0       0       0       0       0       
      +0       0       0       0       0
   642 ;;Total ram usage:        6 bytes
   643 ;; Hardware stack levels used: 1
   644 ;; Hardware stack levels required when called: 4
   645 ;; This function calls:
   646 ;;		Nothing
   647 ;; This function is called by:
   648 ;;		_main
   649 ;; This function uses a non-reentrant model
   650 ;;
   651                           
   652                           	psect	text1
   653  0014BE                     __ptext1:
   654                           	callstack 0
   655  0014BE                     ___wmul:
   656                           	callstack 26
   657  0014BE  503F               	movf	___wmul@multiplier^0,w,c
   658  0014C0  0241               	mulwf	___wmul@multiplicand^0,c
   659  0014C2  006F FFCC  F043    	movff	prodl,___wmul@product
   660  0014C8  006F FFD0  F044    	movff	prodh,___wmul@product+1
   661  0014CE  503F               	movf	___wmul@multiplier^0,w,c
   662  0014D0  0242               	mulwf	(___wmul@multiplicand+1)^0,c
   663  0014D2  50F3               	movf	243,w,c
   664  0014D4  2644               	addwf	(___wmul@product+1)^0,f,c
   665  0014D6  5040               	movf	(___wmul@multiplier+1)^0,w,c
   666  0014D8  0241               	mulwf	___wmul@multiplicand^0,c
   667  0014DA  50F3               	movf	243,w,c
   668  0014DC  2644               	addwf	(___wmul@product+1)^0,f,c
   669  0014DE  C043  F03F         	movff	___wmul@product,?___wmul
   670  0014E2  C044  F040         	movff	___wmul@product+1,?___wmul+1
   671  0014E6  0012               	return		;funcret
   672  0014E8                     __end_of___wmul:
   673                           	callstack 0
   674                           
   675 ;; *************** function _TMR2_HasOverflowOccured *****************
   676 ;; Defined at:
   677 ;;		line 157 in file "mcc_generated_files/tmr2.c"
   678 ;; Parameters:    Size  Location     Type
   679 ;;		None
   680 ;; Auto vars:     Size  Location     Type
   681 ;;  status          1   14[COMRAM] _Bool 
   682 ;; Return value:  Size  Location     Type
   683 ;;                  1    wreg      _Bool 
   684 ;; Registers used:
   685 ;;		wreg, status,2
   686 ;; Tracked objects:
   687 ;;		On entry : 0/0
   688 ;;		On exit  : 0/0
   689 ;;		Unchanged: 0/0
   690 ;; Data sizes:     COMRAM   BANK0   BANK1   BANK2   BANK3   BANK4   BANK5   BANK6   BANK7   BANK8   BANK9  BANK10  BANK1
      +1  BANK12  BANK13  BANK14  BANK15
   691 ;;      Params:         0       0       0       0       0       0       0       0       0       0       0       0       
      +0       0       0       0       0
   692 ;;      Locals:         1       0       0       0       0       0       0       0       0       0       0       0       
      +0       0       0       0       0
   693 ;;      Temps:          0       0       0       0       0       0       0       0       0       0       0       0       
      +0       0       0       0       0
   694 ;;      Totals:         1       0       0       0       0       0       0       0       0       0       0       0       
      +0       0       0       0       0
   695 ;;Total ram usage:        1 bytes
   696 ;; Hardware stack levels used: 1
   697 ;; Hardware stack levels required when called: 4
   698 ;; This function calls:
   699 ;;		Nothing
   700 ;; This function is called by:
   701 ;;		_main
   702 ;; This function uses a non-reentrant model
   703 ;;
   704                           
   705                           	psect	text2
   706  001466                     __ptext2:
   707                           	callstack 0
   708  001466                     _TMR2_HasOverflowOccured:
   709                           	callstack 26
   710  001466                     
   711                           ;mcc_generated_files/tmr2.c: 160:     _Bool status = PIR4bits.TMR2IF;
   712  001466  0139               	movlb	57	; () banked
   713  001468  B5A4               	btfsc	164,2,b	;volatile
   714  00146A  EF39  F00A         	goto	u171
   715  00146E  EF3C  F00A         	goto	u170
   716  001472                     u171:
   717  001472  0E01               	movlw	1
   718  001474  EF3D  F00A         	goto	u176
   719  001478                     u170:
   720  001478  0E00               	movlw	0
   721  00147A                     u176:
   722  00147A  6E3F               	movwf	TMR2_HasOverflowOccured@status^0,c
   723                           
   724                           ;mcc_generated_files/tmr2.c: 161:     if(status)
   725  00147C  503F               	movf	TMR2_HasOverflowOccured@status^0,w,c
   726  00147E  B4D8               	btfsc	status,2,c
   727  001480  EF44  F00A         	goto	u181
   728  001484  EF46  F00A         	goto	u180
   729  001488                     u181:
   730  001488  EF47  F00A         	goto	l1548
   731  00148C                     u180:
   732  00148C                     
   733                           ; BSR set to: 57
   734                           ;mcc_generated_files/tmr2.c: 162:     {;mcc_generated_files/tmr2.c: 164:         PIR4bit
      +                          s.TMR2IF = 0;
   735  00148C  95A4               	bcf	164,2,b	;volatile
   736  00148E                     l1548:
   737                           
   738                           ; BSR set to: 57
   739                           ;mcc_generated_files/tmr2.c: 166:     return status;
   740  00148E  503F               	movf	TMR2_HasOverflowOccured@status^0,w,c
   741  001490                     
   742                           ; BSR set to: 57
   743  001490  0012               	return		;funcret
   744  001492                     __end_of_TMR2_HasOverflowOccured:
   745                           	callstack 0
   746                           
   747 ;; *************** function _SYSTEM_Initialize *****************
   748 ;; Defined at:
   749 ;;		line 50 in file "mcc_generated_files/mcc.c"
   750 ;; Parameters:    Size  Location     Type
   751 ;;		None
   752 ;; Auto vars:     Size  Location     Type
   753 ;;		None
   754 ;; Return value:  Size  Location     Type
   755 ;;                  1    wreg      void 
   756 ;; Registers used:
   757 ;;		wreg, status,2, status,0, cstack
   758 ;; Tracked objects:
   759 ;;		On entry : 0/0
   760 ;;		On exit  : 0/0
   761 ;;		Unchanged: 0/0
   762 ;; Data sizes:     COMRAM   BANK0   BANK1   BANK2   BANK3   BANK4   BANK5   BANK6   BANK7   BANK8   BANK9  BANK10  BANK1
      +1  BANK12  BANK13  BANK14  BANK15
   763 ;;      Params:         0       0       0       0       0       0       0       0       0       0       0       0       
      +0       0       0       0       0
   764 ;;      Locals:         0       0       0       0       0       0       0       0       0       0       0       0       
      +0       0       0       0       0
   765 ;;      Temps:          0       0       0       0       0       0       0       0       0       0       0       0       
      +0       0       0       0       0
   766 ;;      Totals:         0       0       0       0       0       0       0       0       0       0       0       0       
      +0       0       0       0       0
   767 ;;Total ram usage:        0 bytes
   768 ;; Hardware stack levels used: 1
   769 ;; Hardware stack levels required when called: 6
   770 ;; This function calls:
   771 ;;		_CLC2_Initialize
   772 ;;		_DMA1_Initialize
   773 ;;		_INTERRUPT_Initialize
   774 ;;		_OSCILLATOR_Initialize
   775 ;;		_PIN_MANAGER_Initialize
   776 ;;		_PMD_Initialize
   777 ;;		_PWM5_Initialize
   778 ;;		_SPI1_Initialize
   779 ;;		_SystemArbiter_Initialize
   780 ;;		_TMR0_Initialize
   781 ;;		_TMR2_Initialize
   782 ;; This function is called by:
   783 ;;		_main
   784 ;; This function uses a non-reentrant model
   785 ;;
   786                           
   787                           	psect	text3
   788  001438                     __ptext3:
   789                           	callstack 0
   790  001438                     _SYSTEM_Initialize:
   791                           	callstack 24
   792  001438                     
   793                           ;mcc_generated_files/mcc.c: 52:     INTERRUPT_Initialize();
   794  001438  ECE6  F00A         	call	_INTERRUPT_Initialize	;wreg free
   795  00143C                     
   796                           ;mcc_generated_files/mcc.c: 53:     PMD_Initialize();
   797  00143C  EC89  F00A         	call	_PMD_Initialize	;wreg free
   798  001440                     
   799                           ;mcc_generated_files/mcc.c: 54:     PIN_MANAGER_Initialize();
   800  001440  EC2B  F009         	call	_PIN_MANAGER_Initialize	;wreg free
   801  001444                     
   802                           ;mcc_generated_files/mcc.c: 55:     OSCILLATOR_Initialize();
   803  001444  ECC3  F00A         	call	_OSCILLATOR_Initialize	;wreg free
   804  001448                     
   805                           ;mcc_generated_files/mcc.c: 56:     DMA1_Initialize();
   806  001448  EC7C  F009         	call	_DMA1_Initialize	;wreg free
   807  00144C                     
   808                           ;mcc_generated_files/mcc.c: 57:     CLC2_Initialize();
   809  00144C  EC49  F00A         	call	_CLC2_Initialize	;wreg free
   810  001450                     
   811                           ;mcc_generated_files/mcc.c: 58:     PWM5_Initialize();
   812  001450  ECB7  F00A         	call	_PWM5_Initialize	;wreg free
   813  001454                     
   814                           ;mcc_generated_files/mcc.c: 59:     TMR2_Initialize();
   815  001454  EC9B  F00A         	call	_TMR2_Initialize	;wreg free
   816  001458                     
   817                           ;mcc_generated_files/mcc.c: 60:     TMR0_Initialize();
   818  001458  ECCF  F00A         	call	_TMR0_Initialize	;wreg free
   819  00145C                     
   820                           ;mcc_generated_files/mcc.c: 61:     SPI1_Initialize();
   821  00145C  ECAA  F00A         	call	_SPI1_Initialize	;wreg free
   822  001460                     
   823                           ;mcc_generated_files/mcc.c: 62:     SystemArbiter_Initialize();
   824  001460  ECDA  F00A         	call	_SystemArbiter_Initialize	;wreg free
   825  001464  0012               	return		;funcret
   826  001466                     __end_of_SYSTEM_Initialize:
   827                           	callstack 0
   828                           
   829 ;; *************** function _TMR2_Initialize *****************
   830 ;; Defined at:
   831 ;;		line 62 in file "mcc_generated_files/tmr2.c"
   832 ;; Parameters:    Size  Location     Type
   833 ;;		None
   834 ;; Auto vars:     Size  Location     Type
   835 ;;		None
   836 ;; Return value:  Size  Location     Type
   837 ;;                  1    wreg      void 
   838 ;; Registers used:
   839 ;;		wreg, status,2
   840 ;; Tracked objects:
   841 ;;		On entry : 0/0
   842 ;;		On exit  : 0/0
   843 ;;		Unchanged: 0/0
   844 ;; Data sizes:     COMRAM   BANK0   BANK1   BANK2   BANK3   BANK4   BANK5   BANK6   BANK7   BANK8   BANK9  BANK10  BANK1
      +1  BANK12  BANK13  BANK14  BANK15
   845 ;;      Params:         0       0       0       0       0       0       0       0       0       0       0       0       
      +0       0       0       0       0
   846 ;;      Locals:         0       0       0       0       0       0       0       0       0       0       0       0       
      +0       0       0       0       0
   847 ;;      Temps:          0       0       0       0       0       0       0       0       0       0       0       0       
      +0       0       0       0       0
   848 ;;      Totals:         0       0       0       0       0       0       0       0       0       0       0       0       
      +0       0       0       0       0
   849 ;;Total ram usage:        0 bytes
   850 ;; Hardware stack levels used: 1
   851 ;; Hardware stack levels required when called: 4
   852 ;; This function calls:
   853 ;;		Nothing
   854 ;; This function is called by:
   855 ;;		_SYSTEM_Initialize
   856 ;; This function uses a non-reentrant model
   857 ;;
   858                           
   859                           	psect	text4
   860  001536                     __ptext4:
   861                           	callstack 0
   862  001536                     _TMR2_Initialize:
   863                           	callstack 25
   864  001536                     
   865                           ;mcc_generated_files/tmr2.c: 67:     T2CLKCON = 0x01;
   866  001536  0E01               	movlw	1
   867  001538  6EAE               	movwf	174,c	;volatile
   868                           
   869                           ;mcc_generated_files/tmr2.c: 70:     T2HLT = 0x00;
   870  00153A  0E00               	movlw	0
   871  00153C  6EAD               	movwf	173,c	;volatile
   872                           
   873                           ;mcc_generated_files/tmr2.c: 73:     T2RST = 0x00;
   874  00153E  0E00               	movlw	0
   875  001540  6EAF               	movwf	175,c	;volatile
   876                           
   877                           ;mcc_generated_files/tmr2.c: 76:     T2PR = 0x09;
   878  001542  0E09               	movlw	9
   879  001544  6EAB               	movwf	171,c	;volatile
   880                           
   881                           ;mcc_generated_files/tmr2.c: 79:     T2TMR = 0x00;
   882  001546  0E00               	movlw	0
   883  001548  6EAA               	movwf	170,c	;volatile
   884  00154A                     
   885                           ;mcc_generated_files/tmr2.c: 82:     PIR4bits.TMR2IF = 0;
   886  00154A  0139               	movlb	57	; () banked
   887  00154C  95A4               	bcf	164,2,b	;volatile
   888                           
   889                           ;mcc_generated_files/tmr2.c: 85:     T2CON = 0x80;
   890  00154E  0E80               	movlw	128
   891  001550  6EAC               	movwf	172,c	;volatile
   892  001552                     
   893                           ; BSR set to: 57
   894  001552  0012               	return		;funcret
   895  001554                     __end_of_TMR2_Initialize:
   896                           	callstack 0
   897                           
   898 ;; *************** function _TMR0_Initialize *****************
   899 ;; Defined at:
   900 ;;		line 60 in file "mcc_generated_files/tmr0.c"
   901 ;; Parameters:    Size  Location     Type
   902 ;;		None
   903 ;; Auto vars:     Size  Location     Type
   904 ;;		None
   905 ;; Return value:  Size  Location     Type
   906 ;;                  1    wreg      void 
   907 ;; Registers used:
   908 ;;		wreg, status,2
   909 ;; Tracked objects:
   910 ;;		On entry : 0/0
   911 ;;		On exit  : 0/0
   912 ;;		Unchanged: 0/0
   913 ;; Data sizes:     COMRAM   BANK0   BANK1   BANK2   BANK3   BANK4   BANK5   BANK6   BANK7   BANK8   BANK9  BANK10  BANK1
      +1  BANK12  BANK13  BANK14  BANK15
   914 ;;      Params:         0       0       0       0       0       0       0       0       0       0       0       0       
      +0       0       0       0       0
   915 ;;      Locals:         0       0       0       0       0       0       0       0       0       0       0       0       
      +0       0       0       0       0
   916 ;;      Temps:          0       0       0       0       0       0       0       0       0       0       0       0       
      +0       0       0       0       0
   917 ;;      Totals:         0       0       0       0       0       0       0       0       0       0       0       0       
      +0       0       0       0       0
   918 ;;Total ram usage:        0 bytes
   919 ;; Hardware stack levels used: 1
   920 ;; Hardware stack levels required when called: 4
   921 ;; This function calls:
   922 ;;		Nothing
   923 ;; This function is called by:
   924 ;;		_SYSTEM_Initialize
   925 ;; This function uses a non-reentrant model
   926 ;;
   927                           
   928                           	psect	text5
   929  00159E                     __ptext5:
   930                           	callstack 0
   931  00159E                     _TMR0_Initialize:
   932                           	callstack 25
   933  00159E                     
   934                           ;mcc_generated_files/tmr0.c: 65:     T0CON1 = 0x46;
   935  00159E  0E46               	movlw	70
   936  0015A0  6EB9               	movwf	185,c	;volatile
   937                           
   938                           ;mcc_generated_files/tmr0.c: 68:     TMR0H = 0xF9;
   939  0015A2  0EF9               	movlw	249
   940  0015A4  6EB7               	movwf	183,c	;volatile
   941                           
   942                           ;mcc_generated_files/tmr0.c: 71:     TMR0L = 0x00;
   943  0015A6  0E00               	movlw	0
   944  0015A8  6EB6               	movwf	182,c	;volatile
   945  0015AA                     
   946                           ;mcc_generated_files/tmr0.c: 74:     PIR3bits.TMR0IF = 0;
   947  0015AA  0139               	movlb	57	; () banked
   948  0015AC  9FA3               	bcf	163,7,b	;volatile
   949                           
   950                           ;mcc_generated_files/tmr0.c: 77:     T0CON0 = 0x80;
   951  0015AE  0E80               	movlw	128
   952  0015B0  6EB8               	movwf	184,c	;volatile
   953  0015B2                     
   954                           ; BSR set to: 57
   955  0015B2  0012               	return		;funcret
   956  0015B4                     __end_of_TMR0_Initialize:
   957                           	callstack 0
   958                           
   959 ;; *************** function _SystemArbiter_Initialize *****************
   960 ;; Defined at:
   961 ;;		line 100 in file "mcc_generated_files/mcc.c"
   962 ;; Parameters:    Size  Location     Type
   963 ;;		None
   964 ;; Auto vars:     Size  Location     Type
   965 ;;		None
   966 ;; Return value:  Size  Location     Type
   967 ;;                  1    wreg      void 
   968 ;; Registers used:
   969 ;;		wreg, status,2
   970 ;; Tracked objects:
   971 ;;		On entry : 0/0
   972 ;;		On exit  : 0/0
   973 ;;		Unchanged: 0/0
   974 ;; Data sizes:     COMRAM   BANK0   BANK1   BANK2   BANK3   BANK4   BANK5   BANK6   BANK7   BANK8   BANK9  BANK10  BANK1
      +1  BANK12  BANK13  BANK14  BANK15
   975 ;;      Params:         0       0       0       0       0       0       0       0       0       0       0       0       
      +0       0       0       0       0
   976 ;;      Locals:         0       0       0       0       0       0       0       0       0       0       0       0       
      +0       0       0       0       0
   977 ;;      Temps:          0       0       0       0       0       0       0       0       0       0       0       0       
      +0       0       0       0       0
   978 ;;      Totals:         0       0       0       0       0       0       0       0       0       0       0       0       
      +0       0       0       0       0
   979 ;;Total ram usage:        0 bytes
   980 ;; Hardware stack levels used: 1
   981 ;; Hardware stack levels required when called: 4
   982 ;; This function calls:
   983 ;;		Nothing
   984 ;; This function is called by:
   985 ;;		_SYSTEM_Initialize
   986 ;; This function uses a non-reentrant model
   987 ;;
   988                           
   989                           	psect	text6
   990  0015B4                     __ptext6:
   991                           	callstack 0
   992  0015B4                     _SystemArbiter_Initialize:
   993                           	callstack 25
   994  0015B4                     
   995                           ;mcc_generated_files/mcc.c: 103:     PRLOCK = 0x55;
   996  0015B4  0E55               	movlw	85
   997  0015B6  0139               	movlb	57	; () banked
   998  0015B8  6FEF               	movwf	239,b	;volatile
   999                           
  1000                           ;mcc_generated_files/mcc.c: 104:     PRLOCK = 0xAA;
  1001  0015BA  0EAA               	movlw	170
  1002  0015BC  6FEF               	movwf	239,b	;volatile
  1003  0015BE                     
  1004                           ; BSR set to: 57
  1005                           ;mcc_generated_files/mcc.c: 105:     PRLOCKbits.PRLOCKED = 1;
  1006  0015BE  81EF               	bsf	239,0,b	;volatile
  1007  0015C0                     
  1008                           ; BSR set to: 57
  1009  0015C0  0012               	return		;funcret
  1010  0015C2                     __end_of_SystemArbiter_Initialize:
  1011                           	callstack 0
  1012                           
  1013 ;; *************** function _SPI1_Initialize *****************
  1014 ;; Defined at:
  1015 ;;		line 64 in file "mcc_generated_files/spi1.c"
  1016 ;; Parameters:    Size  Location     Type
  1017 ;;		None
  1018 ;; Auto vars:     Size  Location     Type
  1019 ;;		None
  1020 ;; Return value:  Size  Location     Type
  1021 ;;                  1    wreg      void 
  1022 ;; Registers used:
  1023 ;;		wreg, status,2
  1024 ;; Tracked objects:
  1025 ;;		On entry : 0/0
  1026 ;;		On exit  : 0/0
  1027 ;;		Unchanged: 0/0
  1028 ;; Data sizes:     COMRAM   BANK0   BANK1   BANK2   BANK3   BANK4   BANK5   BANK6   BANK7   BANK8   BANK9  BANK10  BANK1
      +1  BANK12  BANK13  BANK14  BANK15
  1029 ;;      Params:         0       0       0       0       0       0       0       0       0       0       0       0       
      +0       0       0       0       0
  1030 ;;      Locals:         0       0       0       0       0       0       0       0       0       0       0       0       
      +0       0       0       0       0
  1031 ;;      Temps:          0       0       0       0       0       0       0       0       0       0       0       0       
      +0       0       0       0       0
  1032 ;;      Totals:         0       0       0       0       0       0       0       0       0       0       0       0       
      +0       0       0       0       0
  1033 ;;Total ram usage:        0 bytes
  1034 ;; Hardware stack levels used: 1
  1035 ;; Hardware stack levels required when called: 4
  1036 ;; This function calls:
  1037 ;;		Nothing
  1038 ;; This function is called by:
  1039 ;;		_SYSTEM_Initialize
  1040 ;; This function uses a non-reentrant model
  1041 ;;
  1042                           
  1043                           	psect	text7
  1044  001554                     __ptext7:
  1045                           	callstack 0
  1046  001554                     _SPI1_Initialize:
  1047                           	callstack 25
  1048  001554                     
  1049                           ;mcc_generated_files/spi1.c: 67:     SPI1CON0 = 0x83;
  1050  001554  0E83               	movlw	131
  1051  001556  013D               	movlb	61	; () banked
  1052  001558  6F14               	movwf	20,b	;volatile
  1053                           
  1054                           ;mcc_generated_files/spi1.c: 69:     SPI1CON1 = 0x00;
  1055  00155A  0E00               	movlw	0
  1056  00155C  6F15               	movwf	21,b	;volatile
  1057                           
  1058                           ;mcc_generated_files/spi1.c: 71:     SPI1CON2 = 0x02;
  1059  00155E  0E02               	movlw	2
  1060  001560  6F16               	movwf	22,b	;volatile
  1061                           
  1062                           ;mcc_generated_files/spi1.c: 73:     SPI1CLK = 0x05;
  1063  001562  0E05               	movlw	5
  1064  001564  6F1C               	movwf	28,b	;volatile
  1065                           
  1066                           ;mcc_generated_files/spi1.c: 75:     SPI1BAUD = 0x00;
  1067  001566  0E00               	movlw	0
  1068  001568  6F19               	movwf	25,b	;volatile
  1069  00156A                     
  1070                           ; BSR set to: 61
  1071                           ;mcc_generated_files/spi1.c: 76:     TRISCbits.TRISC3 = 0;
  1072  00156A  96C4               	bcf	196,3,c	;volatile
  1073  00156C                     
  1074                           ; BSR set to: 61
  1075  00156C  0012               	return		;funcret
  1076  00156E                     __end_of_SPI1_Initialize:
  1077                           	callstack 0
  1078                           
  1079 ;; *************** function _PWM5_Initialize *****************
  1080 ;; Defined at:
  1081 ;;		line 58 in file "mcc_generated_files/pwm5.c"
  1082 ;; Parameters:    Size  Location     Type
  1083 ;;		None
  1084 ;; Auto vars:     Size  Location     Type
  1085 ;;		None
  1086 ;; Return value:  Size  Location     Type
  1087 ;;                  1    wreg      void 
  1088 ;; Registers used:
  1089 ;;		wreg, status,2
  1090 ;; Tracked objects:
  1091 ;;		On entry : 0/0
  1092 ;;		On exit  : 0/0
  1093 ;;		Unchanged: 0/0
  1094 ;; Data sizes:     COMRAM   BANK0   BANK1   BANK2   BANK3   BANK4   BANK5   BANK6   BANK7   BANK8   BANK9  BANK10  BANK1
      +1  BANK12  BANK13  BANK14  BANK15
  1095 ;;      Params:         0       0       0       0       0       0       0       0       0       0       0       0       
      +0       0       0       0       0
  1096 ;;      Locals:         0       0       0       0       0       0       0       0       0       0       0       0       
      +0       0       0       0       0
  1097 ;;      Temps:          0       0       0       0       0       0       0       0       0       0       0       0       
      +0       0       0       0       0
  1098 ;;      Totals:         0       0       0       0       0       0       0       0       0       0       0       0       
      +0       0       0       0       0
  1099 ;;Total ram usage:        0 bytes
  1100 ;; Hardware stack levels used: 1
  1101 ;; Hardware stack levels required when called: 4
  1102 ;; This function calls:
  1103 ;;		Nothing
  1104 ;; This function is called by:
  1105 ;;		_SYSTEM_Initialize
  1106 ;; This function uses a non-reentrant model
  1107 ;;
  1108                           
  1109                           	psect	text8
  1110  00156E                     __ptext8:
  1111                           	callstack 0
  1112  00156E                     _PWM5_Initialize:
  1113                           	callstack 25
  1114  00156E                     
  1115                           ;mcc_generated_files/pwm5.c: 62:     PWM5CON = 0x80;
  1116  00156E  0E80               	movlw	128
  1117  001570  6E6E               	movwf	110,c	;volatile
  1118                           
  1119                           ;mcc_generated_files/pwm5.c: 65:     PWM5DCH = 0x04;
  1120  001572  0E04               	movlw	4
  1121  001574  6E6D               	movwf	109,c	;volatile
  1122                           
  1123                           ;mcc_generated_files/pwm5.c: 68:     PWM5DCL = 0xC0;
  1124  001576  0EC0               	movlw	192
  1125  001578  6E6C               	movwf	108,c	;volatile
  1126                           
  1127                           ;mcc_generated_files/pwm5.c: 71:     CCPTMRS1bits.P5TSEL = 1;
  1128  00157A  013F               	movlb	63	; () banked
  1129  00157C  515F               	movf	95,w,b	;volatile
  1130  00157E  0BFC               	andlw	-4
  1131  001580  0901               	iorlw	1
  1132  001582  6F5F               	movwf	95,b	;volatile
  1133  001584                     
  1134                           ; BSR set to: 63
  1135  001584  0012               	return		;funcret
  1136  001586                     __end_of_PWM5_Initialize:
  1137                           	callstack 0
  1138                           
  1139 ;; *************** function _PMD_Initialize *****************
  1140 ;; Defined at:
  1141 ;;		line 79 in file "mcc_generated_files/mcc.c"
  1142 ;; Parameters:    Size  Location     Type
  1143 ;;		None
  1144 ;; Auto vars:     Size  Location     Type
  1145 ;;		None
  1146 ;; Return value:  Size  Location     Type
  1147 ;;                  1    wreg      void 
  1148 ;; Registers used:
  1149 ;;		wreg, status,2
  1150 ;; Tracked objects:
  1151 ;;		On entry : 0/0
  1152 ;;		On exit  : 0/0
  1153 ;;		Unchanged: 0/0
  1154 ;; Data sizes:     COMRAM   BANK0   BANK1   BANK2   BANK3   BANK4   BANK5   BANK6   BANK7   BANK8   BANK9  BANK10  BANK1
      +1  BANK12  BANK13  BANK14  BANK15
  1155 ;;      Params:         0       0       0       0       0       0       0       0       0       0       0       0       
      +0       0       0       0       0
  1156 ;;      Locals:         0       0       0       0       0       0       0       0       0       0       0       0       
      +0       0       0       0       0
  1157 ;;      Temps:          0       0       0       0       0       0       0       0       0       0       0       0       
      +0       0       0       0       0
  1158 ;;      Totals:         0       0       0       0       0       0       0       0       0       0       0       0       
      +0       0       0       0       0
  1159 ;;Total ram usage:        0 bytes
  1160 ;; Hardware stack levels used: 1
  1161 ;; Hardware stack levels required when called: 4
  1162 ;; This function calls:
  1163 ;;		Nothing
  1164 ;; This function is called by:
  1165 ;;		_SYSTEM_Initialize
  1166 ;; This function uses a non-reentrant model
  1167 ;;
  1168                           
  1169                           	psect	text9
  1170  001512                     __ptext9:
  1171                           	callstack 0
  1172  001512                     _PMD_Initialize:
  1173                           	callstack 25
  1174  001512                     
  1175                           ;mcc_generated_files/mcc.c: 82:     PMD0 = 0x00;
  1176  001512  0E00               	movlw	0
  1177  001514  0139               	movlb	57	; () banked
  1178  001516  6FC0               	movwf	192,b	;volatile
  1179                           
  1180                           ;mcc_generated_files/mcc.c: 84:     PMD1 = 0x00;
  1181  001518  0E00               	movlw	0
  1182  00151A  6FC1               	movwf	193,b	;volatile
  1183                           
  1184                           ;mcc_generated_files/mcc.c: 86:     PMD2 = 0x00;
  1185  00151C  0E00               	movlw	0
  1186  00151E  6FC2               	movwf	194,b	;volatile
  1187                           
  1188                           ;mcc_generated_files/mcc.c: 88:     PMD3 = 0x00;
  1189  001520  0E00               	movlw	0
  1190  001522  6FC3               	movwf	195,b	;volatile
  1191                           
  1192                           ;mcc_generated_files/mcc.c: 90:     PMD4 = 0x00;
  1193  001524  0E00               	movlw	0
  1194  001526  6FC4               	movwf	196,b	;volatile
  1195                           
  1196                           ;mcc_generated_files/mcc.c: 92:     PMD5 = 0x00;
  1197  001528  0E00               	movlw	0
  1198  00152A  6FC5               	movwf	197,b	;volatile
  1199                           
  1200                           ;mcc_generated_files/mcc.c: 94:     PMD6 = 0x00;
  1201  00152C  0E00               	movlw	0
  1202  00152E  6FC6               	movwf	198,b	;volatile
  1203                           
  1204                           ;mcc_generated_files/mcc.c: 96:     PMD7 = 0x00;
  1205  001530  0E00               	movlw	0
  1206  001532  6FC7               	movwf	199,b	;volatile
  1207  001534                     
  1208                           ; BSR set to: 57
  1209  001534  0012               	return		;funcret
  1210  001536                     __end_of_PMD_Initialize:
  1211                           	callstack 0
  1212                           
  1213 ;; *************** function _PIN_MANAGER_Initialize *****************
  1214 ;; Defined at:
  1215 ;;		line 55 in file "mcc_generated_files/pin_manager.c"
  1216 ;; Parameters:    Size  Location     Type
  1217 ;;		None
  1218 ;; Auto vars:     Size  Location     Type
  1219 ;;		None
  1220 ;; Return value:  Size  Location     Type
  1221 ;;                  1    wreg      void 
  1222 ;; Registers used:
  1223 ;;		wreg, status,2
  1224 ;; Tracked objects:
  1225 ;;		On entry : 0/0
  1226 ;;		On exit  : 0/0
  1227 ;;		Unchanged: 0/0
  1228 ;; Data sizes:     COMRAM   BANK0   BANK1   BANK2   BANK3   BANK4   BANK5   BANK6   BANK7   BANK8   BANK9  BANK10  BANK1
      +1  BANK12  BANK13  BANK14  BANK15
  1229 ;;      Params:         0       0       0       0       0       0       0       0       0       0       0       0       
      +0       0       0       0       0
  1230 ;;      Locals:         0       0       0       0       0       0       0       0       0       0       0       0       
      +0       0       0       0       0
  1231 ;;      Temps:          0       0       0       0       0       0       0       0       0       0       0       0       
      +0       0       0       0       0
  1232 ;;      Totals:         0       0       0       0       0       0       0       0       0       0       0       0       
      +0       0       0       0       0
  1233 ;;Total ram usage:        0 bytes
  1234 ;; Hardware stack levels used: 1
  1235 ;; Hardware stack levels required when called: 4
  1236 ;; This function calls:
  1237 ;;		Nothing
  1238 ;; This function is called by:
  1239 ;;		_SYSTEM_Initialize
  1240 ;; This function uses a non-reentrant model
  1241 ;;
  1242                           
  1243                           	psect	text10
  1244  001256                     __ptext10:
  1245                           	callstack 0
  1246  001256                     _PIN_MANAGER_Initialize:
  1247                           	callstack 25
  1248  001256                     
  1249                           ;mcc_generated_files/pin_manager.c: 60:     LATE = 0x00;
  1250  001256  0E00               	movlw	0
  1251  001258  6EBE               	movwf	190,c	;volatile
  1252                           
  1253                           ;mcc_generated_files/pin_manager.c: 61:     LATD = 0x00;
  1254  00125A  0E00               	movlw	0
  1255  00125C  6EBD               	movwf	189,c	;volatile
  1256                           
  1257                           ;mcc_generated_files/pin_manager.c: 62:     LATA = 0x00;
  1258  00125E  0E00               	movlw	0
  1259  001260  6EBA               	movwf	186,c	;volatile
  1260                           
  1261                           ;mcc_generated_files/pin_manager.c: 63:     LATB = 0x00;
  1262  001262  0E00               	movlw	0
  1263  001264  6EBB               	movwf	187,c	;volatile
  1264                           
  1265                           ;mcc_generated_files/pin_manager.c: 64:     LATC = 0x00;
  1266  001266  0E00               	movlw	0
  1267  001268  6EBC               	movwf	188,c	;volatile
  1268                           
  1269                           ;mcc_generated_files/pin_manager.c: 69:     TRISE = 0x07;
  1270  00126A  0E07               	movlw	7
  1271  00126C  6EC6               	movwf	198,c	;volatile
  1272  00126E                     
  1273                           ;mcc_generated_files/pin_manager.c: 70:     TRISA = 0xFF;
  1274  00126E  68C2               	setf	194,c	;volatile
  1275  001270                     
  1276                           ;mcc_generated_files/pin_manager.c: 71:     TRISB = 0xFF;
  1277  001270  68C3               	setf	195,c	;volatile
  1278                           
  1279                           ;mcc_generated_files/pin_manager.c: 72:     TRISC = 0xF6;
  1280  001272  0EF6               	movlw	246
  1281  001274  6EC4               	movwf	196,c	;volatile
  1282  001276                     
  1283                           ;mcc_generated_files/pin_manager.c: 73:     TRISD = 0xFF;
  1284  001276  68C5               	setf	197,c	;volatile
  1285  001278                     
  1286                           ;mcc_generated_files/pin_manager.c: 78:     ANSELD = 0xFF;
  1287  001278  013A               	movlb	58	; () banked
  1288  00127A  6970               	setf	112,b	;volatile
  1289                           
  1290                           ;mcc_generated_files/pin_manager.c: 79:     ANSELC = 0xE7;
  1291  00127C  0EE7               	movlw	231
  1292  00127E  6F60               	movwf	96,b	;volatile
  1293  001280                     
  1294                           ; BSR set to: 58
  1295                           ;mcc_generated_files/pin_manager.c: 80:     ANSELB = 0xFF;
  1296  001280  6950               	setf	80,b	;volatile
  1297                           
  1298                           ;mcc_generated_files/pin_manager.c: 81:     ANSELE = 0x07;
  1299  001282  0E07               	movlw	7
  1300  001284  6F80               	movwf	128,b	;volatile
  1301                           
  1302                           ;mcc_generated_files/pin_manager.c: 82:     ANSELA = 0xFE;
  1303  001286  0EFE               	movlw	254
  1304  001288  6F40               	movwf	64,b	;volatile
  1305                           
  1306                           ;mcc_generated_files/pin_manager.c: 87:     WPUD = 0x00;
  1307  00128A  0E00               	movlw	0
  1308  00128C  6F71               	movwf	113,b	;volatile
  1309                           
  1310                           ;mcc_generated_files/pin_manager.c: 88:     WPUE = 0x00;
  1311  00128E  0E00               	movlw	0
  1312  001290  6F81               	movwf	129,b	;volatile
  1313                           
  1314                           ;mcc_generated_files/pin_manager.c: 89:     WPUB = 0x00;
  1315  001292  0E00               	movlw	0
  1316  001294  6F51               	movwf	81,b	;volatile
  1317                           
  1318                           ;mcc_generated_files/pin_manager.c: 90:     WPUA = 0x00;
  1319  001296  0E00               	movlw	0
  1320  001298  6F41               	movwf	65,b	;volatile
  1321                           
  1322                           ;mcc_generated_files/pin_manager.c: 91:     WPUC = 0x00;
  1323  00129A  0E00               	movlw	0
  1324  00129C  6F61               	movwf	97,b	;volatile
  1325                           
  1326                           ;mcc_generated_files/pin_manager.c: 96:     RB1I2C = 0x00;
  1327  00129E  0E00               	movlw	0
  1328  0012A0  6F5A               	movwf	90,b	;volatile
  1329                           
  1330                           ;mcc_generated_files/pin_manager.c: 97:     RB2I2C = 0x00;
  1331  0012A2  0E00               	movlw	0
  1332  0012A4  6F5B               	movwf	91,b	;volatile
  1333                           
  1334                           ;mcc_generated_files/pin_manager.c: 98:     RC3I2C = 0x00;
  1335  0012A6  0E00               	movlw	0
  1336  0012A8  6F6A               	movwf	106,b	;volatile
  1337                           
  1338                           ;mcc_generated_files/pin_manager.c: 99:     RC4I2C = 0x00;
  1339  0012AA  0E00               	movlw	0
  1340  0012AC  6F6B               	movwf	107,b	;volatile
  1341                           
  1342                           ;mcc_generated_files/pin_manager.c: 100:     RD0I2C = 0x00;
  1343  0012AE  0E00               	movlw	0
  1344  0012B0  6F7A               	movwf	122,b	;volatile
  1345                           
  1346                           ;mcc_generated_files/pin_manager.c: 101:     RD1I2C = 0x00;
  1347  0012B2  0E00               	movlw	0
  1348  0012B4  6F7B               	movwf	123,b	;volatile
  1349                           
  1350                           ;mcc_generated_files/pin_manager.c: 106:     ODCONE = 0x00;
  1351  0012B6  0E00               	movlw	0
  1352  0012B8  6F82               	movwf	130,b	;volatile
  1353                           
  1354                           ;mcc_generated_files/pin_manager.c: 107:     ODCONA = 0x00;
  1355  0012BA  0E00               	movlw	0
  1356  0012BC  6F42               	movwf	66,b	;volatile
  1357                           
  1358                           ;mcc_generated_files/pin_manager.c: 108:     ODCONB = 0x00;
  1359  0012BE  0E00               	movlw	0
  1360  0012C0  6F52               	movwf	82,b	;volatile
  1361                           
  1362                           ;mcc_generated_files/pin_manager.c: 109:     ODCONC = 0x00;
  1363  0012C2  0E00               	movlw	0
  1364  0012C4  6F62               	movwf	98,b	;volatile
  1365                           
  1366                           ;mcc_generated_files/pin_manager.c: 110:     ODCOND = 0x00;
  1367  0012C6  0E00               	movlw	0
  1368  0012C8  6F72               	movwf	114,b	;volatile
  1369  0012CA                     
  1370                           ; BSR set to: 58
  1371                           ;mcc_generated_files/pin_manager.c: 115:     SLRCONA = 0xFF;
  1372  0012CA  6943               	setf	67,b	;volatile
  1373  0012CC                     
  1374                           ; BSR set to: 58
  1375                           ;mcc_generated_files/pin_manager.c: 116:     SLRCONB = 0xFF;
  1376  0012CC  6953               	setf	83,b	;volatile
  1377  0012CE                     
  1378                           ; BSR set to: 58
  1379                           ;mcc_generated_files/pin_manager.c: 117:     SLRCONC = 0xFF;
  1380  0012CE  6963               	setf	99,b	;volatile
  1381  0012D0                     
  1382                           ; BSR set to: 58
  1383                           ;mcc_generated_files/pin_manager.c: 118:     SLRCOND = 0xFF;
  1384  0012D0  6973               	setf	115,b	;volatile
  1385                           
  1386                           ;mcc_generated_files/pin_manager.c: 119:     SLRCONE = 0x07;
  1387  0012D2  0E07               	movlw	7
  1388  0012D4  6F83               	movwf	131,b	;volatile
  1389  0012D6                     
  1390                           ; BSR set to: 58
  1391                           ;mcc_generated_files/pin_manager.c: 124:     INLVLA = 0xFF;
  1392  0012D6  6944               	setf	68,b	;volatile
  1393  0012D8                     
  1394                           ; BSR set to: 58
  1395                           ;mcc_generated_files/pin_manager.c: 125:     INLVLB = 0xFF;
  1396  0012D8  6954               	setf	84,b	;volatile
  1397  0012DA                     
  1398                           ; BSR set to: 58
  1399                           ;mcc_generated_files/pin_manager.c: 126:     INLVLC = 0xFF;
  1400  0012DA  6964               	setf	100,b	;volatile
  1401  0012DC                     
  1402                           ; BSR set to: 58
  1403                           ;mcc_generated_files/pin_manager.c: 127:     INLVLD = 0xFF;
  1404  0012DC  6974               	setf	116,b	;volatile
  1405                           
  1406                           ;mcc_generated_files/pin_manager.c: 128:     INLVLE = 0x0F;
  1407  0012DE  0E0F               	movlw	15
  1408  0012E0  6F84               	movwf	132,b	;volatile
  1409                           
  1410                           ;mcc_generated_files/pin_manager.c: 137:     RC0PPS = 0x02;
  1411  0012E2  0E02               	movlw	2
  1412  0012E4  6F10               	movwf	16,b	;volatile
  1413                           
  1414                           ;mcc_generated_files/pin_manager.c: 138:     SPI1SCKPPS = 0x13;
  1415  0012E6  0E13               	movlw	19
  1416  0012E8  6FDE               	movwf	222,b	;volatile
  1417                           
  1418                           ;mcc_generated_files/pin_manager.c: 139:     RC3PPS = 0x1E;
  1419  0012EA  0E1E               	movlw	30
  1420  0012EC  6F13               	movwf	19,b	;volatile
  1421                           
  1422                           ;mcc_generated_files/pin_manager.c: 140:     CLCIN0PPS = 0x00;
  1423  0012EE  0E00               	movlw	0
  1424  0012F0  6FD9               	movwf	217,b	;volatile
  1425                           
  1426                           ;mcc_generated_files/pin_manager.c: 141:     SPI1SDIPPS = 0x14;
  1427  0012F2  0E14               	movlw	20
  1428  0012F4  6FDF               	movwf	223,b	;volatile
  1429  0012F6                     
  1430                           ; BSR set to: 58
  1431  0012F6  0012               	return		;funcret
  1432  0012F8                     __end_of_PIN_MANAGER_Initialize:
  1433                           	callstack 0
  1434                           
  1435 ;; *************** function _OSCILLATOR_Initialize *****************
  1436 ;; Defined at:
  1437 ;;		line 65 in file "mcc_generated_files/mcc.c"
  1438 ;; Parameters:    Size  Location     Type
  1439 ;;		None
  1440 ;; Auto vars:     Size  Location     Type
  1441 ;;		None
  1442 ;; Return value:  Size  Location     Type
  1443 ;;                  1    wreg      void 
  1444 ;; Registers used:
  1445 ;;		wreg, status,2
  1446 ;; Tracked objects:
  1447 ;;		On entry : 0/0
  1448 ;;		On exit  : 0/0
  1449 ;;		Unchanged: 0/0
  1450 ;; Data sizes:     COMRAM   BANK0   BANK1   BANK2   BANK3   BANK4   BANK5   BANK6   BANK7   BANK8   BANK9  BANK10  BANK1
      +1  BANK12  BANK13  BANK14  BANK15
  1451 ;;      Params:         0       0       0       0       0       0       0       0       0       0       0       0       
      +0       0       0       0       0
  1452 ;;      Locals:         0       0       0       0       0       0       0       0       0       0       0       0       
      +0       0       0       0       0
  1453 ;;      Temps:          0       0       0       0       0       0       0       0       0       0       0       0       
      +0       0       0       0       0
  1454 ;;      Totals:         0       0       0       0       0       0       0       0       0       0       0       0       
      +0       0       0       0       0
  1455 ;;Total ram usage:        0 bytes
  1456 ;; Hardware stack levels used: 1
  1457 ;; Hardware stack levels required when called: 4
  1458 ;; This function calls:
  1459 ;;		Nothing
  1460 ;; This function is called by:
  1461 ;;		_SYSTEM_Initialize
  1462 ;; This function uses a non-reentrant model
  1463 ;;
  1464                           
  1465                           	psect	text11
  1466  001586                     __ptext11:
  1467                           	callstack 0
  1468  001586                     _OSCILLATOR_Initialize:
  1469                           	callstack 25
  1470  001586                     
  1471                           ;mcc_generated_files/mcc.c: 68:     OSCCON1 = 0x60;
  1472  001586  0E60               	movlw	96
  1473  001588  0139               	movlb	57	; () banked
  1474  00158A  6FD9               	movwf	217,b	;volatile
  1475                           
  1476                           ;mcc_generated_files/mcc.c: 70:     OSCCON3 = 0x00;
  1477  00158C  0E00               	movlw	0
  1478  00158E  6FDB               	movwf	219,b	;volatile
  1479                           
  1480                           ;mcc_generated_files/mcc.c: 72:     OSCEN = 0x00;
  1481  001590  0E00               	movlw	0
  1482  001592  6FDD               	movwf	221,b	;volatile
  1483                           
  1484                           ;mcc_generated_files/mcc.c: 74:     OSCFRQ = 0x08;
  1485  001594  0E08               	movlw	8
  1486  001596  6FDF               	movwf	223,b	;volatile
  1487                           
  1488                           ;mcc_generated_files/mcc.c: 76:     OSCTUNE = 0x00;
  1489  001598  0E00               	movlw	0
  1490  00159A  6FDE               	movwf	222,b	;volatile
  1491  00159C                     
  1492                           ; BSR set to: 57
  1493  00159C  0012               	return		;funcret
  1494  00159E                     __end_of_OSCILLATOR_Initialize:
  1495                           	callstack 0
  1496                           
  1497 ;; *************** function _INTERRUPT_Initialize *****************
  1498 ;; Defined at:
  1499 ;;		line 53 in file "mcc_generated_files/interrupt_manager.c"
  1500 ;; Parameters:    Size  Location     Type
  1501 ;;		None
  1502 ;; Auto vars:     Size  Location     Type
  1503 ;;		None
  1504 ;; Return value:  Size  Location     Type
  1505 ;;                  1    wreg      void 
  1506 ;; Registers used:
  1507 ;;		None
  1508 ;; Tracked objects:
  1509 ;;		On entry : 0/0
  1510 ;;		On exit  : 0/0
  1511 ;;		Unchanged: 0/0
  1512 ;; Data sizes:     COMRAM   BANK0   BANK1   BANK2   BANK3   BANK4   BANK5   BANK6   BANK7   BANK8   BANK9  BANK10  BANK1
      +1  BANK12  BANK13  BANK14  BANK15
  1513 ;;      Params:         0       0       0       0       0       0       0       0       0       0       0       0       
      +0       0       0       0       0
  1514 ;;      Locals:         0       0       0       0       0       0       0       0       0       0       0       0       
      +0       0       0       0       0
  1515 ;;      Temps:          0       0       0       0       0       0       0       0       0       0       0       0       
      +0       0       0       0       0
  1516 ;;      Totals:         0       0       0       0       0       0       0       0       0       0       0       0       
      +0       0       0       0       0
  1517 ;;Total ram usage:        0 bytes
  1518 ;; Hardware stack levels used: 1
  1519 ;; Hardware stack levels required when called: 4
  1520 ;; This function calls:
  1521 ;;		Nothing
  1522 ;; This function is called by:
  1523 ;;		_SYSTEM_Initialize
  1524 ;; This function uses a non-reentrant model
  1525 ;;
  1526                           
  1527                           	psect	text12
  1528  0015CC                     __ptext12:
  1529                           	callstack 0
  1530  0015CC                     _INTERRUPT_Initialize:
  1531                           	callstack 25
  1532  0015CC                     
  1533                           ;mcc_generated_files/interrupt_manager.c: 56:     INTCON0bits.IPEN = 0;
  1534  0015CC  9AD2               	bcf	210,5,c	;volatile
  1535  0015CE  0012               	return		;funcret
  1536  0015D0                     __end_of_INTERRUPT_Initialize:
  1537                           	callstack 0
  1538                           
  1539 ;; *************** function _DMA1_Initialize *****************
  1540 ;; Defined at:
  1541 ;;		line 87 in file "mcc_generated_files/dma1.c"
  1542 ;; Parameters:    Size  Location     Type
  1543 ;;		None
  1544 ;; Auto vars:     Size  Location     Type
  1545 ;;		None
  1546 ;; Return value:  Size  Location     Type
  1547 ;;                  1    wreg      void 
  1548 ;; Registers used:
  1549 ;;		wreg, status,2, status,0, cstack
  1550 ;; Tracked objects:
  1551 ;;		On entry : 0/0
  1552 ;;		On exit  : 0/0
  1553 ;;		Unchanged: 0/0
  1554 ;; Data sizes:     COMRAM   BANK0   BANK1   BANK2   BANK3   BANK4   BANK5   BANK6   BANK7   BANK8   BANK9  BANK10  BANK1
      +1  BANK12  BANK13  BANK14  BANK15
  1555 ;;      Params:         0       0       0       0       0       0       0       0       0       0       0       0       
      +0       0       0       0       0
  1556 ;;      Locals:         0       0       0       0       0       0       0       0       0       0       0       0       
      +0       0       0       0       0
  1557 ;;      Temps:          1       0       0       0       0       0       0       0       0       0       0       0       
      +0       0       0       0       0
  1558 ;;      Totals:         1       0       0       0       0       0       0       0       0       0       0       0       
      +0       0       0       0       0
  1559 ;;Total ram usage:        1 bytes
  1560 ;; Hardware stack levels used: 1
  1561 ;; Hardware stack levels required when called: 5
  1562 ;; This function calls:
  1563 ;;		_DMA1_SetSCNTIInterruptHandler
  1564 ;; This function is called by:
  1565 ;;		_SYSTEM_Initialize
  1566 ;; This function uses a non-reentrant model
  1567 ;;
  1568                           
  1569                           	psect	text13
  1570  0012F8                     __ptext13:
  1571                           	callstack 0
  1572  0012F8                     _DMA1_Initialize:
  1573                           	callstack 24
  1574  0012F8                     
  1575                           ;mcc_generated_files/dma1.c: 90:     DMA1CON0 = 0;
  1576  0012F8  0E00               	movlw	0
  1577  0012FA  013B               	movlb	59	; () banked
  1578  0012FC  6FFC               	movwf	252,b	;volatile
  1579  0012FE                     
  1580                           ; BSR set to: 59
  1581                           ;mcc_generated_files/dma1.c: 97:     DMA1SSA = (uint8_t) & MyPixelArray.Frame[0][0];
  1582  0012FE  0E30               	movlw	_MyPixelArray& (0+255)
  1583  001300  6E41               	movwf	??_DMA1_Initialize^0,c
  1584  001302  5041               	movf	??_DMA1_Initialize^0,w,c
  1585  001304  6FF9               	movwf	249,b	;volatile
  1586  001306  6BFA               	clrf	250,b	;volatile
  1587  001308  6BFB               	clrf	251,b	;volatile
  1588  00130A                     
  1589                           ; BSR set to: 59
  1590                           ;mcc_generated_files/dma1.c: 98:     DMA1DSA = (uint8_t) & SPI1TXB;
  1591  00130A  0E3D               	movlw	61
  1592  00130C  6FF1               	movwf	241,b	;volatile
  1593  00130E  0E11               	movlw	17
  1594  001310  6FF0               	movwf	240,b	;volatile
  1595  001312                     
  1596                           ; BSR set to: 59
  1597                           ;mcc_generated_files/dma1.c: 103:     DMA1CON1bits.SMR = 0b00;
  1598  001312  0EE7               	movlw	-25
  1599  001314  17FD               	andwf	253,f,b	;volatile
  1600  001316                     
  1601                           ; BSR set to: 59
  1602                           ;mcc_generated_files/dma1.c: 107:     DMA1CON1bits.SMODE = 0b01;
  1603  001316  51FD               	movf	253,w,b	;volatile
  1604  001318  0BF9               	andlw	-7
  1605  00131A  0902               	iorlw	2
  1606  00131C  6FFD               	movwf	253,b	;volatile
  1607  00131E                     
  1608                           ; BSR set to: 59
  1609                           ;mcc_generated_files/dma1.c: 108:     DMA1CON1bits.DMODE = 0b00;
  1610  00131E  0E3F               	movlw	-193
  1611  001320  17FD               	andwf	253,f,b	;volatile
  1612  001322                     
  1613                           ; BSR set to: 59
  1614                           ;mcc_generated_files/dma1.c: 114:     DMA1SSZ = 150;
  1615  001322  0E00               	movlw	0
  1616  001324  6FF8               	movwf	248,b	;volatile
  1617  001326  0E96               	movlw	150
  1618  001328  6FF7               	movwf	247,b	;volatile
  1619  00132A                     
  1620                           ; BSR set to: 59
  1621                           ;mcc_generated_files/dma1.c: 115:     DMA1DSZ = 1;
  1622  00132A  0E00               	movlw	0
  1623  00132C  6FEF               	movwf	239,b	;volatile
  1624  00132E  0E01               	movlw	1
  1625  001330  6FEE               	movwf	238,b	;volatile
  1626  001332                     
  1627                           ; BSR set to: 59
  1628                           ;mcc_generated_files/dma1.c: 121:     DMA1CON1bits.SSTP = 1;
  1629  001332  81FD               	bsf	253,0,b	;volatile
  1630  001334                     
  1631                           ; BSR set to: 59
  1632                           ;mcc_generated_files/dma1.c: 122:     DMA1CON1bits.DSTP = 0;
  1633  001334  9BFD               	bcf	253,5,b	;volatile
  1634  001336                     
  1635                           ; BSR set to: 59
  1636                           ;mcc_generated_files/dma1.c: 129:     DMA1SIRQ = 21;
  1637  001336  0E15               	movlw	21
  1638  001338  6FFF               	movwf	255,b	;volatile
  1639  00133A                     
  1640                           ; BSR set to: 59
  1641                           ;mcc_generated_files/dma1.c: 130:     DMA1AIRQ = 0;
  1642  00133A  0E00               	movlw	0
  1643  00133C  6FFE               	movwf	254,b	;volatile
  1644  00133E                     
  1645                           ; BSR set to: 59
  1646                           ;mcc_generated_files/dma1.c: 133:     DMA1CON0bits.DMA1SIRQEN = 0;
  1647  00133E  9DFC               	bcf	252,6,b	;volatile
  1648  001340                     
  1649                           ; BSR set to: 59
  1650  001340  0139               	banksel	14831	;# 
  1651  001342  0E55               	movlw	85	;# 
  1652  001344  6FEF               	movwf	239,b	;# 
  1653  001346  0EAA               	movlw	170	;# 
  1654  001348  6FEF               	movwf	239,b	;# 
  1655  00134A  91EF               	bcf	239,0,b	;# 
  1656  00134C                     
  1657                           ;mcc_generated_files/dma1.c: 142:     MAINPR = 3;
  1658  00134C  0E03               	movlw	3
  1659  00134E  0139               	movlb	57	; () banked
  1660  001350  6FF2               	movwf	242,b	;volatile
  1661  001352                     
  1662                           ; BSR set to: 57
  1663                           ;mcc_generated_files/dma1.c: 143:     ISRPR = 2;
  1664  001352  0E02               	movlw	2
  1665  001354  6FF1               	movwf	241,b	;volatile
  1666  001356                     
  1667                           ; BSR set to: 57
  1668                           ;mcc_generated_files/dma1.c: 144:     DMA1PR = 0;
  1669  001356  0E00               	movlw	0
  1670  001358  6FF3               	movwf	243,b	;volatile
  1671  00135A                     
  1672                           ; BSR set to: 57
  1673                           ;mcc_generated_files/dma1.c: 145:     DMA2PR = 1;
  1674  00135A  0E01               	movlw	1
  1675  00135C  6FF4               	movwf	244,b	;volatile
  1676  00135E                     
  1677                           ; BSR set to: 57
  1678                           ;mcc_generated_files/dma1.c: 146:     SCANPR = 4;
  1679  00135E  0E04               	movlw	4
  1680  001360  6FF7               	movwf	247,b	;volatile
  1681  001362                     
  1682                           ; BSR set to: 57
  1683  001362  0139               	banksel	14831	;# 
  1684  001364  0E55               	movlw	85	;# 
  1685  001366  6FEF               	movwf	239,b	;# 
  1686  001368  0EAA               	movlw	170	;# 
  1687  00136A  6FEF               	movwf	239,b	;# 
  1688  00136C  81EF               	bsf	239,0,b	;# 
  1689  00136E                     
  1690                           ;mcc_generated_files/dma1.c: 151:     DMA1CON0bits.EN = 1;
  1691  00136E  013B               	movlb	59	; () banked
  1692  001370  8FFC               	bsf	252,7,b	;volatile
  1693  001372                     
  1694                           ; BSR set to: 59
  1695                           ;mcc_generated_files/dma1.c: 165:     PIR2bits.DMA1DCNTIF = 0;
  1696  001372  0139               	movlb	57	; () banked
  1697  001374  93A2               	bcf	162,1,b	;volatile
  1698  001376                     
  1699                           ; BSR set to: 57
  1700                           ;mcc_generated_files/dma1.c: 167:     PIR2bits.DMA1SCNTIF = 0;
  1701  001376  91A2               	bcf	162,0,b	;volatile
  1702  001378                     
  1703                           ; BSR set to: 57
  1704                           ;mcc_generated_files/dma1.c: 169:     PIR2bits.DMA1AIF = 0;
  1705  001378  97A2               	bcf	162,3,b	;volatile
  1706  00137A                     
  1707                           ; BSR set to: 57
  1708                           ;mcc_generated_files/dma1.c: 171:     PIR2bits.DMA1ORIF = 0;
  1709  00137A  95A2               	bcf	162,2,b	;volatile
  1710  00137C                     
  1711                           ; BSR set to: 57
  1712                           ;mcc_generated_files/dma1.c: 173:     PIE2bits.DMA1DCNTIE = 0;
  1713  00137C  9392               	bcf	146,1,b	;volatile
  1714  00137E                     
  1715                           ; BSR set to: 57
  1716                           ;mcc_generated_files/dma1.c: 174:     PIE2bits.DMA1SCNTIE = 1;
  1717  00137E  8192               	bsf	146,0,b	;volatile
  1718  001380                     
  1719                           ; BSR set to: 57
  1720                           ;mcc_generated_files/dma1.c: 175:     DMA1_SetSCNTIInterruptHandler(DMA1_DefaultInterrup
      +                          tHandler);
  1721  001380  0E54               	movlw	low _DMA1_DefaultInterruptHandler
  1722  001382  6E3F               	movwf	DMA1_SetSCNTIInterruptHandler@InterruptHandler^0,c
  1723  001384  0E11               	movlw	high _DMA1_DefaultInterruptHandler
  1724  001386  6E40               	movwf	(DMA1_SetSCNTIInterruptHandler@InterruptHandler+1)^0,c
  1725  001388  ECE1  F00A         	call	_DMA1_SetSCNTIInterruptHandler	;wreg free
  1726  00138C                     
  1727                           ;mcc_generated_files/dma1.c: 176:     PIE2bits.DMA1AIE = 0;
  1728  00138C  0139               	movlb	57	; () banked
  1729  00138E  9792               	bcf	146,3,b	;volatile
  1730  001390                     
  1731                           ; BSR set to: 57
  1732                           ;mcc_generated_files/dma1.c: 177:     PIE2bits.DMA1ORIE = 0;
  1733  001390  9592               	bcf	146,2,b	;volatile
  1734  001392                     
  1735                           ; BSR set to: 57
  1736                           ;mcc_generated_files/dma1.c: 180:     DMA1CON0 = 0x80;
  1737  001392  0E80               	movlw	128
  1738  001394  013B               	movlb	59	; () banked
  1739  001396  6FFC               	movwf	252,b	;volatile
  1740  001398                     
  1741                           ; BSR set to: 59
  1742  001398  0012               	return		;funcret
  1743  00139A                     __end_of_DMA1_Initialize:
  1744                           	callstack 0
  1745                           
  1746 ;; *************** function _DMA1_SetSCNTIInterruptHandler *****************
  1747 ;; Defined at:
  1748 ;;		line 254 in file "mcc_generated_files/dma1.c"
  1749 ;; Parameters:    Size  Location     Type
  1750 ;;  InterruptHan    2   14[COMRAM] PTR FTN()void 
  1751 ;;		 -> DMA1_DefaultInterruptHandler(1), 
  1752 ;; Auto vars:     Size  Location     Type
  1753 ;;		None
  1754 ;; Return value:  Size  Location     Type
  1755 ;;                  1    wreg      void 
  1756 ;; Registers used:
  1757 ;;		wreg, status,2, status,0
  1758 ;; Tracked objects:
  1759 ;;		On entry : 0/0
  1760 ;;		On exit  : 0/0
  1761 ;;		Unchanged: 0/0
  1762 ;; Data sizes:     COMRAM   BANK0   BANK1   BANK2   BANK3   BANK4   BANK5   BANK6   BANK7   BANK8   BANK9  BANK10  BANK1
      +1  BANK12  BANK13  BANK14  BANK15
  1763 ;;      Params:         2       0       0       0       0       0       0       0       0       0       0       0       
      +0       0       0       0       0
  1764 ;;      Locals:         0       0       0       0       0       0       0       0       0       0       0       0       
      +0       0       0       0       0
  1765 ;;      Temps:          0       0       0       0       0       0       0       0       0       0       0       0       
      +0       0       0       0       0
  1766 ;;      Totals:         2       0       0       0       0       0       0       0       0       0       0       0       
      +0       0       0       0       0
  1767 ;;Total ram usage:        2 bytes
  1768 ;; Hardware stack levels used: 1
  1769 ;; Hardware stack levels required when called: 4
  1770 ;; This function calls:
  1771 ;;		Nothing
  1772 ;; This function is called by:
  1773 ;;		_DMA1_Initialize
  1774 ;; This function uses a non-reentrant model
  1775 ;;
  1776                           
  1777                           	psect	text14
  1778  0015C2                     __ptext14:
  1779                           	callstack 0
  1780  0015C2                     _DMA1_SetSCNTIInterruptHandler:
  1781                           	callstack 24
  1782  0015C2                     
  1783                           ;mcc_generated_files/dma1.c: 255:     DMA1_SCNTI_InterruptHandler = InterruptHandler;
  1784  0015C2  C03F  F04A         	movff	DMA1_SetSCNTIInterruptHandler@InterruptHandler,_DMA1_SCNTI_InterruptHandler
  1785  0015C6  C040  F04B         	movff	DMA1_SetSCNTIInterruptHandler@InterruptHandler+1,_DMA1_SCNTI_InterruptHandler+1
  1786  0015CA  0012               	return		;funcret
  1787  0015CC                     __end_of_DMA1_SetSCNTIInterruptHandler:
  1788                           	callstack 0
  1789                           
  1790 ;; *************** function _CLC2_Initialize *****************
  1791 ;; Defined at:
  1792 ;;		line 58 in file "mcc_generated_files/clc2.c"
  1793 ;; Parameters:    Size  Location     Type
  1794 ;;		None
  1795 ;; Auto vars:     Size  Location     Type
  1796 ;;		None
  1797 ;; Return value:  Size  Location     Type
  1798 ;;                  1    wreg      void 
  1799 ;; Registers used:
  1800 ;;		wreg, status,2
  1801 ;; Tracked objects:
  1802 ;;		On entry : 0/0
  1803 ;;		On exit  : 0/0
  1804 ;;		Unchanged: 0/0
  1805 ;; Data sizes:     COMRAM   BANK0   BANK1   BANK2   BANK3   BANK4   BANK5   BANK6   BANK7   BANK8   BANK9  BANK10  BANK1
      +1  BANK12  BANK13  BANK14  BANK15
  1806 ;;      Params:         0       0       0       0       0       0       0       0       0       0       0       0       
      +0       0       0       0       0
  1807 ;;      Locals:         0       0       0       0       0       0       0       0       0       0       0       0       
      +0       0       0       0       0
  1808 ;;      Temps:          0       0       0       0       0       0       0       0       0       0       0       0       
      +0       0       0       0       0
  1809 ;;      Totals:         0       0       0       0       0       0       0       0       0       0       0       0       
      +0       0       0       0       0
  1810 ;;Total ram usage:        0 bytes
  1811 ;; Hardware stack levels used: 1
  1812 ;; Hardware stack levels required when called: 4
  1813 ;; This function calls:
  1814 ;;		Nothing
  1815 ;; This function is called by:
  1816 ;;		_SYSTEM_Initialize
  1817 ;; This function uses a non-reentrant model
  1818 ;;
  1819                           
  1820                           	psect	text15
  1821  001492                     __ptext15:
  1822                           	callstack 0
  1823  001492                     _CLC2_Initialize:
  1824                           	callstack 25
  1825  001492                     
  1826                           ;mcc_generated_files/clc2.c: 63:     CLC2POL = 0x00;
  1827  001492  0E00               	movlw	0
  1828  001494  013C               	movlb	60	; () banked
  1829  001496  6F6B               	movwf	107,b	;volatile
  1830                           
  1831                           ;mcc_generated_files/clc2.c: 65:     CLC2SEL0 = 0x18;
  1832  001498  0E18               	movlw	24
  1833  00149A  6F6C               	movwf	108,b	;volatile
  1834                           
  1835                           ;mcc_generated_files/clc2.c: 67:     CLC2SEL1 = 0x2C;
  1836  00149C  0E2C               	movlw	44
  1837  00149E  6F6D               	movwf	109,b	;volatile
  1838                           
  1839                           ;mcc_generated_files/clc2.c: 69:     CLC2SEL2 = 0x2B;
  1840  0014A0  0E2B               	movlw	43
  1841  0014A2  6F6E               	movwf	110,b	;volatile
  1842                           
  1843                           ;mcc_generated_files/clc2.c: 71:     CLC2SEL3 = 0x00;
  1844  0014A4  0E00               	movlw	0
  1845  0014A6  6F6F               	movwf	111,b	;volatile
  1846                           
  1847                           ;mcc_generated_files/clc2.c: 73:     CLC2GLS0 = 0x08;
  1848  0014A8  0E08               	movlw	8
  1849  0014AA  6F70               	movwf	112,b	;volatile
  1850                           
  1851                           ;mcc_generated_files/clc2.c: 75:     CLC2GLS1 = 0x22;
  1852  0014AC  0E22               	movlw	34
  1853  0014AE  6F71               	movwf	113,b	;volatile
  1854                           
  1855                           ;mcc_generated_files/clc2.c: 77:     CLC2GLS2 = 0x00;
  1856  0014B0  0E00               	movlw	0
  1857  0014B2  6F72               	movwf	114,b	;volatile
  1858                           
  1859                           ;mcc_generated_files/clc2.c: 79:     CLC2GLS3 = 0x00;
  1860  0014B4  0E00               	movlw	0
  1861  0014B6  6F73               	movwf	115,b	;volatile
  1862                           
  1863                           ;mcc_generated_files/clc2.c: 81:     CLC2CON = 0x80;
  1864  0014B8  0E80               	movlw	128
  1865  0014BA  6F6A               	movwf	106,b	;volatile
  1866  0014BC                     
  1867                           ; BSR set to: 60
  1868  0014BC  0012               	return		;funcret
  1869  0014BE                     __end_of_CLC2_Initialize:
  1870                           	callstack 0
  1871                           
  1872 ;; *************** function _INTERRUPT_InterruptManager *****************
  1873 ;; Defined at:
  1874 ;;		line 59 in file "mcc_generated_files/interrupt_manager.c"
  1875 ;; Parameters:    Size  Location     Type
  1876 ;;		None
  1877 ;; Auto vars:     Size  Location     Type
  1878 ;;		None
  1879 ;; Return value:  Size  Location     Type
  1880 ;;                  1    wreg      void 
  1881 ;; Registers used:
  1882 ;;		wreg, status,2, status,0, pcl, pclath, pclatu, tosl, prodl, prodh, cstack
  1883 ;; Tracked objects:
  1884 ;;		On entry : 0/0
  1885 ;;		On exit  : 0/0
  1886 ;;		Unchanged: 0/0
  1887 ;; Data sizes:     COMRAM   BANK0   BANK1   BANK2   BANK3   BANK4   BANK5   BANK6   BANK7   BANK8   BANK9  BANK10  BANK1
      +1  BANK12  BANK13  BANK14  BANK15
  1888 ;;      Params:         0       0       0       0       0       0       0       0       0       0       0       0       
      +0       0       0       0       0
  1889 ;;      Locals:         0       0       0       0       0       0       0       0       0       0       0       0       
      +0       0       0       0       0
  1890 ;;      Temps:          2       0       0       0       0       0       0       0       0       0       0       0       
      +0       0       0       0       0
  1891 ;;      Totals:         2       0       0       0       0       0       0       0       0       0       0       0       
      +0       0       0       0       0
  1892 ;;Total ram usage:        2 bytes
  1893 ;; Hardware stack levels used: 1
  1894 ;; Hardware stack levels required when called: 3
  1895 ;; This function calls:
  1896 ;;		_DMA1_DMASCNTI_ISR
  1897 ;; This function is called by:
  1898 ;;		Interrupt level 2
  1899 ;; This function uses a non-reentrant model
  1900 ;;
  1901                           
  1902                           	psect	text16
  1903  00139A                     __ptext16:
  1904                           	callstack 0
  1905  00139A                     _INTERRUPT_InterruptManager:
  1906                           	callstack 24
  1907                           
  1908                           ; BSR set to: 60
  1909                           ;incstack = 0
  1910  00139A  006F FFE8  F03D    	movff	pclath,??_INTERRUPT_InterruptManager
  1911  0013A0  006F FFEC  F03E    	movff	pclatu,??_INTERRUPT_InterruptManager+1
  1912  0013A6                     
  1913                           ;mcc_generated_files/interrupt_manager.c: 62:     if(PIE2bits.DMA1SCNTIE == 1 && PIR2bit
      +                          s.DMA1SCNTIF == 1)
  1914  0013A6  0139               	movlb	57	; () banked
  1915  0013A8  A192               	btfss	146,0,b	;volatile
  1916  0013AA  EFD9  F009         	goto	i2u19_41
  1917  0013AE  EFDB  F009         	goto	i2u19_40
  1918  0013B2                     i2u19_41:
  1919  0013B2  EFE4  F009         	goto	i2l349
  1920  0013B6                     i2u19_40:
  1921  0013B6                     
  1922                           ; BSR set to: 57
  1923  0013B6  A1A2               	btfss	162,0,b	;volatile
  1924  0013B8  EFE0  F009         	goto	i2u20_41
  1925  0013BC  EFE2  F009         	goto	i2u20_40
  1926  0013C0                     i2u20_41:
  1927  0013C0  EFE4  F009         	goto	i2l349
  1928  0013C4                     i2u20_40:
  1929  0013C4                     
  1930                           ; BSR set to: 57
  1931                           ;mcc_generated_files/interrupt_manager.c: 63:     {;mcc_generated_files/interrupt_manage
      +                          r.c: 64:         DMA1_DMASCNTI_ISR();
  1932  0013C4  EC04  F00A         	call	_DMA1_DMASCNTI_ISR	;wreg free
  1933  0013C8                     i2l349:
  1934  0013C8  0060  F0FB  FFFB   	movff	??_INTERRUPT_InterruptManager+1,pclatu
  1935  0013CE  0060  F0F7  FFFA   	movff	??_INTERRUPT_InterruptManager,pclath
  1936  0013D4  0011               	retfie		f
  1937  0013D6                     __end_of_INTERRUPT_InterruptManager:
  1938                           	callstack 0
  1939                           
  1940 ;; *************** function _DMA1_DMASCNTI_ISR *****************
  1941 ;; Defined at:
  1942 ;;		line 246 in file "mcc_generated_files/dma1.c"
  1943 ;; Parameters:    Size  Location     Type
  1944 ;;		None
  1945 ;; Auto vars:     Size  Location     Type
  1946 ;;		None
  1947 ;; Return value:  Size  Location     Type
  1948 ;;                  1    wreg      void 
  1949 ;; Registers used:
  1950 ;;		wreg, status,2, status,0, pcl, pclath, pclatu, tosl, prodl, prodh, cstack
  1951 ;; Tracked objects:
  1952 ;;		On entry : 0/0
  1953 ;;		On exit  : 0/0
  1954 ;;		Unchanged: 0/0
  1955 ;; Data sizes:     COMRAM   BANK0   BANK1   BANK2   BANK3   BANK4   BANK5   BANK6   BANK7   BANK8   BANK9  BANK10  BANK1
      +1  BANK12  BANK13  BANK14  BANK15
  1956 ;;      Params:         0       0       0       0       0       0       0       0       0       0       0       0       
      +0       0       0       0       0
  1957 ;;      Locals:         0       0       0       0       0       0       0       0       0       0       0       0       
      +0       0       0       0       0
  1958 ;;      Temps:          0       0       0       0       0       0       0       0       0       0       0       0       
      +0       0       0       0       0
  1959 ;;      Totals:         0       0       0       0       0       0       0       0       0       0       0       0       
      +0       0       0       0       0
  1960 ;;Total ram usage:        0 bytes
  1961 ;; Hardware stack levels used: 1
  1962 ;; Hardware stack levels required when called: 2
  1963 ;; This function calls:
  1964 ;;		Absolute function
  1965 ;;		_DMA1_DefaultInterruptHandler
  1966 ;; This function is called by:
  1967 ;;		_INTERRUPT_InterruptManager
  1968 ;; This function uses a non-reentrant model
  1969 ;;
  1970                           
  1971                           	psect	text17
  1972  001408                     __ptext17:
  1973                           	callstack 0
  1974  001408                     _DMA1_DMASCNTI_ISR:
  1975                           	callstack 24
  1976  001408                     
  1977                           ;mcc_generated_files/dma1.c: 248:     PIR2bits.DMA1SCNTIF = 0;
  1978  001408  0139               	movlb	57	; () banked
  1979  00140A  91A2               	bcf	162,0,b	;volatile
  1980  00140C                     
  1981                           ; BSR set to: 57
  1982                           ;mcc_generated_files/dma1.c: 250:     if (DMA1_SCNTI_InterruptHandler)
  1983  00140C  504A               	movf	_DMA1_SCNTI_InterruptHandler^0,w,c
  1984  00140E  104B               	iorwf	(_DMA1_SCNTI_InterruptHandler+1)^0,w,c
  1985  001410  B4D8               	btfsc	status,2,c
  1986  001412  EF0D  F00A         	goto	i2u15_41
  1987  001416  EF0F  F00A         	goto	i2u15_40
  1988  00141A                     i2u15_41:
  1989  00141A  EF1B  F00A         	goto	i2l227
  1990  00141E                     i2u15_40:
  1991  00141E                     
  1992                           ; BSR set to: 57
  1993                           ;mcc_generated_files/dma1.c: 251:         DMA1_SCNTI_InterruptHandler();
  1994  00141E  D802               	call	i2u16_48
  1995  001420  EF1B  F00A         	goto	i2u16_49
  1996  001424                     i2u16_48:
  1997  001424  0005               	push	
  1998  001426  6EFA               	movwf	pclath,c
  1999  001428  504A               	movf	_DMA1_SCNTI_InterruptHandler^0,w,c
  2000  00142A  6EFD               	movwf	tosl,c
  2001  00142C  504B               	movf	(_DMA1_SCNTI_InterruptHandler+1)^0,w,c
  2002  00142E  6EFE               	movwf	tosh,c
  2003  001430  6AFF               	clrf	tosu,c
  2004  001432  50FA               	movf	pclath,w,c
  2005  001434  0012               	return		;indir
  2006  001436                     i2u16_49:
  2007  001436                     i2l227:
  2008  001436  0012               	return		;funcret
  2009  001438                     __end_of_DMA1_DMASCNTI_ISR:
  2010                           	callstack 0
  2011                           
  2012 ;; *************** function _DMA1_DefaultInterruptHandler *****************
  2013 ;; Defined at:
  2014 ;;		line 260 in file "mcc_generated_files/dma1.c"
  2015 ;; Parameters:    Size  Location     Type
  2016 ;;		None
  2017 ;; Auto vars:     Size  Location     Type
  2018 ;;  check           2    8[COMRAM] short 
  2019 ;;  dma_size        2   10[COMRAM] short 
  2020 ;; Return value:  Size  Location     Type
  2021 ;;                  1    wreg      void 
  2022 ;; Registers used:
  2023 ;;		wreg, status,2, status,0, prodl, prodh, cstack
  2024 ;; Tracked objects:
  2025 ;;		On entry : 0/0
  2026 ;;		On exit  : 0/0
  2027 ;;		Unchanged: 0/0
  2028 ;; Data sizes:     COMRAM   BANK0   BANK1   BANK2   BANK3   BANK4   BANK5   BANK6   BANK7   BANK8   BANK9  BANK10  BANK1
      +1  BANK12  BANK13  BANK14  BANK15
  2029 ;;      Params:         0       0       0       0       0       0       0       0       0       0       0       0       
      +0       0       0       0       0
  2030 ;;      Locals:         4       0       0       0       0       0       0       0       0       0       0       0       
      +0       0       0       0       0
  2031 ;;      Temps:          2       0       0       0       0       0       0       0       0       0       0       0       
      +0       0       0       0       0
  2032 ;;      Totals:         6       0       0       0       0       0       0       0       0       0       0       0       
      +0       0       0       0       0
  2033 ;;Total ram usage:        6 bytes
  2034 ;; Hardware stack levels used: 1
  2035 ;; Hardware stack levels required when called: 1
  2036 ;; This function calls:
  2037 ;;		i2___wmul
  2038 ;; This function is called by:
  2039 ;;		_DMA1_Initialize
  2040 ;;		_DMA1_DMASCNTI_ISR
  2041 ;; This function uses a non-reentrant model
  2042 ;;
  2043                           
  2044                           	psect	text18
  2045  001154                     __ptext18:
  2046                           	callstack 0
  2047  001154                     _DMA1_DefaultInterruptHandler:
  2048                           	callstack 24
  2049  001154                     
  2050                           ;mcc_generated_files/dma1.c: 261:     static uint16_t led_index = 0;;mcc_generated_files
      +                          /dma1.c: 262:     int16_t dma_size;;mcc_generated_files/dma1.c: 264:     switch (int_sta
      +                          te) {
  2051  001154  EF15  F009         	goto	i2l1510
  2052  001158                     i2l236:
  2053                           
  2054                           ;mcc_generated_files/dma1.c: 266:             LATCbits.LATC1 = 0;
  2055  001158  92BC               	bcf	188,1,c	;volatile
  2056                           
  2057                           ;mcc_generated_files/dma1.c: 267:             DMA1CON0bits.EN = 0;
  2058  00115A  013B               	movlb	59	; () banked
  2059  00115C  9FFC               	bcf	252,7,b	;volatile
  2060  00115E                     
  2061                           ; BSR set to: 59
  2062                           ;mcc_generated_files/dma1.c: 268:             led_index += 250;
  2063  00115E  0EFA               	movlw	250
  2064  001160  262A               	addwf	DMA1_DefaultInterruptHandler@led_index^0,f,c
  2065  001162  0E00               	movlw	0
  2066  001164  222B               	addwfc	(DMA1_DefaultInterruptHandler@led_index+1)^0,f,c
  2067  001166                     
  2068                           ; BSR set to: 59
  2069                           ;mcc_generated_files/dma1.c: 269:             DMA1SSA = ((uint24_t) & MyPixelArray.Frame
      +                          [led_index][0]);
  2070  001166  C02A  F031         	movff	DMA1_DefaultInterruptHandler@led_index,i2___wmul@multiplier
  2071  00116A  C02B  F032         	movff	DMA1_DefaultInterruptHandler@led_index+1,i2___wmul@multiplier+1
  2072  00116E  0E00               	movlw	0
  2073  001170  6E34               	movwf	(i2___wmul@multiplicand+1)^0,c
  2074  001172  0E03               	movlw	3
  2075  001174  6E33               	movwf	i2___wmul@multiplicand^0,c
  2076  001176  EC74  F00A         	call	i2___wmul	;wreg free
  2077  00117A  0E30               	movlw	low _MyPixelArray
  2078  00117C  6E37               	movwf	??_DMA1_DefaultInterruptHandler^0,c
  2079  00117E  0E0D               	movlw	high _MyPixelArray
  2080  001180  6E38               	movwf	(??_DMA1_DefaultInterruptHandler+1)^0,c
  2081  001182  5031               	movf	?i2___wmul^0,w,c
  2082  001184  2637               	addwf	??_DMA1_DefaultInterruptHandler^0,f,c
  2083  001186  5032               	movf	(?i2___wmul+1)^0,w,c
  2084  001188  2238               	addwfc	(??_DMA1_DefaultInterruptHandler+1)^0,f,c
  2085  00118A  0060  F0DF  FBF9   	movff	??_DMA1_DefaultInterruptHandler,15353	;volatile
  2086  001190  0060  F0E3  FBFA   	movff	??_DMA1_DefaultInterruptHandler+1,15354	;volatile
  2087  001196  013B               	movlb	59	; () banked
  2088  001198  6BFB               	clrf	251,b	;volatile
  2089  00119A                     
  2090                           ; BSR set to: 59
  2091                           ;mcc_generated_files/dma1.c: 270:             dma_size = 250;
  2092  00119A  0E00               	movlw	0
  2093  00119C  6E3C               	movwf	(DMA1_DefaultInterruptHandler@dma_size+1)^0,c
  2094  00119E  0EFA               	movlw	250
  2095  0011A0  6E3B               	movwf	DMA1_DefaultInterruptHandler@dma_size^0,c
  2096  0011A2                     
  2097                           ; BSR set to: 59
  2098                           ;mcc_generated_files/dma1.c: 271:             int16_t check = (int16_t) led_index + (int
      +                          16_t) dma_size;
  2099  0011A2  503B               	movf	DMA1_DefaultInterruptHandler@dma_size^0,w,c
  2100  0011A4  242A               	addwf	DMA1_DefaultInterruptHandler@led_index^0,w,c
  2101  0011A6  6E39               	movwf	DMA1_DefaultInterruptHandler@check^0,c
  2102  0011A8  503C               	movf	(DMA1_DefaultInterruptHandler@dma_size+1)^0,w,c
  2103  0011AA  202B               	addwfc	(DMA1_DefaultInterruptHandler@led_index+1)^0,w,c
  2104  0011AC  6E3A               	movwf	(DMA1_DefaultInterruptHandler@check+1)^0,c
  2105  0011AE                     
  2106                           ; BSR set to: 59
  2107                           ;mcc_generated_files/dma1.c: 272:             if (check >= 240) {
  2108  0011AE  BE3A               	btfsc	(DMA1_DefaultInterruptHandler@check+1)^0,7,c
  2109  0011B0  EFE3  F008         	goto	i2u13_41
  2110  0011B4  503A               	movf	(DMA1_DefaultInterruptHandler@check+1)^0,w,c
  2111  0011B6  E109               	bnz	i2u13_40
  2112  0011B8  0EF0               	movlw	240
  2113  0011BA  5C39               	subwf	DMA1_DefaultInterruptHandler@check^0,w,c
  2114  0011BC  A0D8               	btfss	status,0,c
  2115  0011BE  EFE3  F008         	goto	i2u13_41
  2116  0011C2  EFE5  F008         	goto	i2u13_40
  2117  0011C6                     i2u13_41:
  2118  0011C6  EFF6  F008         	goto	i2l1496
  2119  0011CA                     i2u13_40:
  2120  0011CA                     
  2121                           ; BSR set to: 59
  2122                           ;mcc_generated_files/dma1.c: 273:                 dma_size = 240 - 250;
  2123  0011CA  0EFF               	movlw	255
  2124  0011CC  6E3C               	movwf	(DMA1_DefaultInterruptHandler@dma_size+1)^0,c
  2125  0011CE  0EF6               	movlw	246
  2126  0011D0  6E3B               	movwf	DMA1_DefaultInterruptHandler@dma_size^0,c
  2127                           
  2128                           ;mcc_generated_files/dma1.c: 274:                 int_state = 1;
  2129  0011D2  0E01               	movlw	1
  2130  0011D4  6E30               	movwf	_int_state^0,c
  2131  0011D6                     
  2132                           ; BSR set to: 59
  2133                           ;mcc_generated_files/dma1.c: 275:                 if (dma_size == 0)break;
  2134  0011D6  503B               	movf	DMA1_DefaultInterruptHandler@dma_size^0,w,c
  2135  0011D8  103C               	iorwf	(DMA1_DefaultInterruptHandler@dma_size+1)^0,w,c
  2136  0011DA  A4D8               	btfss	status,2,c
  2137  0011DC  EFF2  F008         	goto	i2u14_41
  2138  0011E0  EFF4  F008         	goto	i2u14_40
  2139  0011E4                     i2u14_41:
  2140  0011E4  EFF6  F008         	goto	i2l1496
  2141  0011E8                     i2u14_40:
  2142  0011E8  EF2A  F009         	goto	i2l242
  2143  0011EC                     i2l1496:
  2144                           
  2145                           ; BSR set to: 59
  2146                           ;mcc_generated_files/dma1.c: 277:             DMA1SSZ = 3 * (uint16_t) dma_size;
  2147  0011EC  C03B  F031         	movff	DMA1_DefaultInterruptHandler@dma_size,i2___wmul@multiplier
  2148  0011F0  C03C  F032         	movff	DMA1_DefaultInterruptHandler@dma_size+1,i2___wmul@multiplier+1
  2149  0011F4  0E00               	movlw	0
  2150  0011F6  6E34               	movwf	(i2___wmul@multiplicand+1)^0,c
  2151  0011F8  0E03               	movlw	3
  2152  0011FA  6E33               	movwf	i2___wmul@multiplicand^0,c
  2153  0011FC  EC74  F00A         	call	i2___wmul	;wreg free
  2154  001200  0060  F0C7  FBF7   	movff	?i2___wmul,15351	;volatile
  2155  001206  0060  F0CB  FBF8   	movff	?i2___wmul+1,15352	;volatile
  2156  00120C                     
  2157                           ;mcc_generated_files/dma1.c: 278:             DMA1CON0bits.EN = 1;
  2158  00120C  013B               	movlb	59	; () banked
  2159  00120E  8FFC               	bsf	252,7,b	;volatile
  2160  001210                     
  2161                           ; BSR set to: 59
  2162                           ;mcc_generated_files/dma1.c: 279:             DMA1CON0bits.DMA1SIRQEN = 1;
  2163  001210  8DFC               	bsf	252,6,b	;volatile
  2164  001212                     
  2165                           ; BSR set to: 59
  2166                           ;mcc_generated_files/dma1.c: 280:             LATCbits.LATC1 = 1;
  2167  001212  82BC               	bsf	188,1,c	;volatile
  2168                           
  2169                           ;mcc_generated_files/dma1.c: 281:             break;
  2170  001214  EF2A  F009         	goto	i2l242
  2171  001218                     i2l1504:
  2172                           
  2173                           ;mcc_generated_files/dma1.c: 283:             led_index = 0;
  2174  001218  0E00               	movlw	0
  2175  00121A  6E2B               	movwf	(DMA1_DefaultInterruptHandler@led_index+1)^0,c
  2176  00121C  0E00               	movlw	0
  2177  00121E  6E2A               	movwf	DMA1_DefaultInterruptHandler@led_index^0,c
  2178  001220                     
  2179                           ;mcc_generated_files/dma1.c: 284:             LATCbits.LATC1 = 0;
  2180  001220  92BC               	bcf	188,1,c	;volatile
  2181                           
  2182                           ;mcc_generated_files/dma1.c: 285:             int_state = 2;
  2183  001222  0E02               	movlw	2
  2184  001224  6E30               	movwf	_int_state^0,c
  2185                           
  2186                           ;mcc_generated_files/dma1.c: 286:             break;
  2187  001226  EF2A  F009         	goto	i2l242
  2188  00122A                     i2l1510:
  2189  00122A  5030               	movf	_int_state^0,w,c
  2190  00122C  6E37               	movwf	??_DMA1_DefaultInterruptHandler^0,c
  2191  00122E  6A38               	clrf	(??_DMA1_DefaultInterruptHandler+1)^0,c
  2192                           
  2193                           ; Switch on 2 bytes has been partitioned into a top level switch of size 1, and 1 sub-sw
      +                          itches
  2194                           ; Switch size 1, requested type "simple"
  2195                           ; Number of cases is 1, Range of values is 0 to 0
  2196                           ; switch strategies available:
  2197                           ; Name         Instructions Cycles
  2198                           ; simple_byte            4     3 (average)
  2199                           ;	Chosen strategy is simple_byte
  2200  001230  5038               	movf	(??_DMA1_DefaultInterruptHandler+1)^0,w,c
  2201  001232  0A00               	xorlw	0	; case 0
  2202  001234  B4D8               	btfsc	status,2,c
  2203  001236  EF1F  F009         	goto	i2l1628
  2204  00123A  EF2A  F009         	goto	i2l242
  2205  00123E                     i2l1628:
  2206                           
  2207                           ; Switch size 1, requested type "simple"
  2208                           ; Number of cases is 2, Range of values is 0 to 1
  2209                           ; switch strategies available:
  2210                           ; Name         Instructions Cycles
  2211                           ; simple_byte            7     4 (average)
  2212                           ;	Chosen strategy is simple_byte
  2213  00123E  5037               	movf	??_DMA1_DefaultInterruptHandler^0,w,c
  2214  001240  0A00               	xorlw	0	; case 0
  2215  001242  B4D8               	btfsc	status,2,c
  2216  001244  EFAC  F008         	goto	i2l236
  2217  001248  0A01               	xorlw	1	; case 1
  2218  00124A  B4D8               	btfsc	status,2,c
  2219  00124C  EF0C  F009         	goto	i2l1504
  2220  001250  EF2A  F009         	goto	i2l242
  2221  001254                     i2l242:
  2222  001254  0012               	return		;funcret
  2223  001256                     __end_of_DMA1_DefaultInterruptHandler:
  2224                           	callstack 0
  2225                           
  2226 ;; *************** function i2___wmul *****************
  2227 ;; Defined at:
  2228 ;;		line 15 in file "C:\Program Files\Microchip\xc8\v2.36\pic\sources\c99\common\Umul16.c"
  2229 ;; Parameters:    Size  Location     Type
  2230 ;;  multiplier      2    0[COMRAM] unsigned int 
  2231 ;;  multiplicand    2    2[COMRAM] unsigned int 
  2232 ;; Auto vars:     Size  Location     Type
  2233 ;;  product         2    4[COMRAM] unsigned int 
  2234 ;; Return value:  Size  Location     Type
  2235 ;;                  2    0[COMRAM] unsigned int 
  2236 ;; Registers used:
  2237 ;;		wreg, status,2, status,0, prodl, prodh
  2238 ;; Tracked objects:
  2239 ;;		On entry : 0/0
  2240 ;;		On exit  : 0/0
  2241 ;;		Unchanged: 0/0
  2242 ;; Data sizes:     COMRAM   BANK0   BANK1   BANK2   BANK3   BANK4   BANK5   BANK6   BANK7   BANK8   BANK9  BANK10  BANK1
      +1  BANK12  BANK13  BANK14  BANK15
  2243 ;;      Params:         4       0       0       0       0       0       0       0       0       0       0       0       
      +0       0       0       0       0
  2244 ;;      Locals:         2       0       0       0       0       0       0       0       0       0       0       0       
      +0       0       0       0       0
  2245 ;;      Temps:          0       0       0       0       0       0       0       0       0       0       0       0       
      +0       0       0       0       0
  2246 ;;      Totals:         6       0       0       0       0       0       0       0       0       0       0       0       
      +0       0       0       0       0
  2247 ;;Total ram usage:        6 bytes
  2248 ;; Hardware stack levels used: 1
  2249 ;; This function calls:
  2250 ;;		Nothing
  2251 ;; This function is called by:
  2252 ;;		_DMA1_DefaultInterruptHandler
  2253 ;; This function uses a non-reentrant model
  2254 ;;
  2255                           
  2256                           	psect	text19
  2257  0014E8                     __ptext19:
  2258                           	callstack 0
  2259  0014E8                     i2___wmul:
  2260                           	callstack 24
  2261  0014E8  5031               	movf	i2___wmul@multiplier^0,w,c
  2262  0014EA  0233               	mulwf	i2___wmul@multiplicand^0,c
  2263  0014EC  006F FFCC  F035    	movff	prodl,i2___wmul@product
  2264  0014F2  006F FFD0  F036    	movff	prodh,i2___wmul@product+1
  2265  0014F8  5031               	movf	i2___wmul@multiplier^0,w,c
  2266  0014FA  0234               	mulwf	(i2___wmul@multiplicand+1)^0,c
  2267  0014FC  50F3               	movf	243,w,c
  2268  0014FE  2636               	addwf	(i2___wmul@product+1)^0,f,c
  2269  001500  5032               	movf	(i2___wmul@multiplier+1)^0,w,c
  2270  001502  0233               	mulwf	i2___wmul@multiplicand^0,c
  2271  001504  50F3               	movf	243,w,c
  2272  001506  2636               	addwf	(i2___wmul@product+1)^0,f,c
  2273  001508  C035  F031         	movff	i2___wmul@product,?i2___wmul
  2274  00150C  C036  F032         	movff	i2___wmul@product+1,?i2___wmul+1
  2275  001510  0012               	return		;funcret
  2276  001512                     __end_ofi2___wmul:
  2277                           	callstack 0
  2278                           
  2279                           ;
  2280                           ; Interrupt Vector Table @ 0x8
  2281                           ;
  2282                           
  2283                           	psect	ivt0x8
  2284  000008                     __pivt0x8:
  2285                           	callstack 0
  2286  000008                     ivt0x8_base:
  2287                           	callstack 0
  2288                           
  2289                           ; high-priority vector
  2290  000008  EFCD  F009         	goto	_INTERRUPT_InterruptManager
  2291  000018                     	org	16
  2292                           
  2293                           ; low-priority vector
  2294  000018  00FF               	reset	
  2295                           
  2296                           	psect	text20
  2297  000000                     __ptext20:
  2298                           	callstack 0
  2299  000000                     
  2300                           	psect	rparam
  2301  0000                     
  2302                           	psect	idloc
  2303                           
  2304                           ;Config register IDLOC0 @ 0x200000
  2305                           ;	unspecified, using default values
  2306  200000                     	org	2097152
  2307  200000  0FFF               	dw	4095
  2308                           
  2309                           ;Config register IDLOC1 @ 0x200002
  2310                           ;	unspecified, using default values
  2311  200002                     	org	2097154
  2312  200002  0FFF               	dw	4095
  2313                           
  2314                           ;Config register IDLOC2 @ 0x200004
  2315                           ;	unspecified, using default values
  2316  200004                     	org	2097156
  2317  200004  0FFF               	dw	4095
  2318                           
  2319                           ;Config register IDLOC3 @ 0x200006
  2320                           ;	unspecified, using default values
  2321  200006                     	org	2097158
  2322  200006  0FFF               	dw	4095
  2323                           
  2324                           ;Config register IDLOC4 @ 0x200008
  2325                           ;	unspecified, using default values
  2326  200008                     	org	2097160
  2327  200008  0FFF               	dw	4095
  2328                           
  2329                           ;Config register IDLOC5 @ 0x20000A
  2330                           ;	unspecified, using default values
  2331  20000A                     	org	2097162
  2332  20000A  0FFF               	dw	4095
  2333                           
  2334                           ;Config register IDLOC6 @ 0x20000C
  2335                           ;	unspecified, using default values
  2336  20000C                     	org	2097164
  2337  20000C  0FFF               	dw	4095
  2338                           
  2339                           ;Config register IDLOC7 @ 0x20000E
  2340                           ;	unspecified, using default values
  2341  20000E                     	org	2097166
  2342  20000E  0FFF               	dw	4095
  2343                           
  2344                           	psect	config
  2345                           
  2346                           ;Config register CONFIG1L @ 0x300000
  2347                           ;	External Oscillator Selection
  2348                           ;	FEXTOSC = OFF, Oscillator not enabled
  2349                           ;	Reset Oscillator Selection
  2350                           ;	RSTOSC = HFINTOSC_64MHZ, HFINTOSC with HFFRQ = 64 MHz and CDIV = 1:1
  2351  300000                     	org	3145728
  2352  300000  8C                 	db	140
  2353                           
  2354                           ;Config register CONFIG1H @ 0x300001
  2355                           ;	Clock out Enable bit
  2356                           ;	CLKOUTEN = OFF, CLKOUT function is disabled
  2357                           ;	PRLOCKED One-Way Set Enable bit
  2358                           ;	PR1WAY = ON, PRLOCK bit can be cleared and set only once
  2359                           ;	Clock Switch Enable bit
  2360                           ;	CSWEN = ON, Writing to NOSC and NDIV is allowed
  2361                           ;	Fail-Safe Clock Monitor Enable bit
  2362                           ;	FCMEN = ON, Fail-Safe Clock Monitor enabled
  2363  300001                     	org	3145729
  2364  300001  FF                 	db	255
  2365                           
  2366                           ;Config register CONFIG2L @ 0x300002
  2367                           ;	MCLR Enable bit
  2368                           ;	MCLRE = EXTMCLR, If LVP = 0, MCLR pin is MCLR; If LVP = 1, RE3 pin function is MCLR
  2369                           ;	Power-up timer selection bits
  2370                           ;	PWRTS = PWRT_OFF, PWRT is disabled
  2371                           ;	Multi-vector enable bit
  2372                           ;	MVECEN = OFF, Interrupt contoller does not use vector table to prioritze interrupts
  2373                           ;	IVTLOCK bit One-way set enable bit
  2374                           ;	IVT1WAY = ON, IVTLOCK bit can be cleared and set only once
  2375                           ;	Low Power BOR Enable bit
  2376                           ;	LPBOREN = OFF, ULPBOR disabled
  2377                           ;	Brown-out Reset Enable bits
  2378                           ;	BOREN = SBORDIS, Brown-out Reset enabled , SBOREN bit is ignored
  2379  300002                     	org	3145730
  2380  300002  F7                 	db	247
  2381                           
  2382                           ;Config register CONFIG2H @ 0x300003
  2383                           ;	Brown-out Reset Voltage Selection bits
  2384                           ;	BORV = VBOR_2P45, Brown-out Reset Voltage (VBOR) set to 2.45V
  2385                           ;	ZCD Disable bit
  2386                           ;	ZCD = OFF, ZCD disabled. ZCD can be enabled by setting the ZCDSEN bit of ZCDCON
  2387                           ;	PPSLOCK bit One-Way Set Enable bit
  2388                           ;	PPS1WAY = ON, PPSLOCK bit can be cleared and set only once; PPS registers remain locke
      +                          d after one clear/set cycle
  2389                           ;	Stack Full/Underflow Reset Enable bit
  2390                           ;	STVREN = ON, Stack full/underflow will cause Reset
  2391                           ;	Debugger Enable bit
  2392                           ;	DEBUG = OFF, Background debugger disabled
  2393                           ;	Extended Instruction Set Enable bit
  2394                           ;	XINST = OFF, Extended Instruction Set and Indexed Addressing Mode disabled
  2395  300003                     	org	3145731
  2396  300003  FF                 	db	255
  2397                           
  2398                           ;Config register CONFIG3L @ 0x300004
  2399                           ;	WDT Period selection bits
  2400                           ;	WDTCPS = WDTCPS_31, Divider ratio 1:65536; software control of WDTPS
  2401                           ;	WDT operating mode
  2402                           ;	WDTE = OFF, WDT Disabled; SWDTEN is ignored
  2403  300004                     	org	3145732
  2404  300004  9F                 	db	159
  2405                           
  2406                           ;Config register CONFIG3H @ 0x300005
  2407                           ;	WDT Window Select bits
  2408                           ;	WDTCWS = WDTCWS_7, window always open (100%); software control; keyed access not requi
      +                          red
  2409                           ;	WDT input clock selector
  2410                           ;	WDTCCS = SC, Software Control
  2411  300005                     	org	3145733
  2412  300005  FF                 	db	255
  2413                           
  2414                           ;Config register CONFIG4L @ 0x300006
  2415                           ;	Boot Block Size selection bits
  2416                           ;	BBSIZE = BBSIZE_512, Boot Block size is 512 words
  2417                           ;	Boot Block enable bit
  2418                           ;	BBEN = OFF, Boot block disabled
  2419                           ;	Storage Area Flash enable bit
  2420                           ;	SAFEN = OFF, SAF disabled
  2421                           ;	Application Block write protection bit
  2422                           ;	WRTAPP = OFF, Application Block not write protected
  2423  300006                     	org	3145734
  2424  300006  FF                 	db	255
  2425                           
  2426                           ;Config register CONFIG4H @ 0x300007
  2427                           ;	Configuration Register Write Protection bit
  2428                           ;	WRTB = OFF, Configuration registers (300000-30000Bh) not write-protected
  2429                           ;	Boot Block Write Protection bit
  2430                           ;	WRTC = OFF, Boot Block (000000-0007FFh) not write-protected
  2431                           ;	Data EEPROM Write Protection bit
  2432                           ;	WRTD = OFF, Data EEPROM not write-protected
  2433                           ;	SAF Write protection bit
  2434                           ;	WRTSAF = OFF, SAF not Write Protected
  2435                           ;	Low Voltage Programming Enable bit
  2436                           ;	LVP = ON, Low voltage programming enabled. MCLR/VPP pin function is MCLR. MCLRE config
      +                          uration bit is ignored
  2437  300007                     	org	3145735
  2438  300007  FF                 	db	255
  2439                           
  2440                           ;Config register CONFIG5L @ 0x300008
  2441                           ;	PFM and Data EEPROM Code Protection bit
  2442                           ;	CP = OFF, PFM and Data EEPROM code protection disabled
  2443  300008                     	org	3145736
  2444  300008  FF                 	db	255
  2445                           
  2446                           ;Config register CONFIG5H @ 0x300009
  2447                           ;	unspecified, using default values
  2448  300009                     	org	3145737
  2449  300009  FF                 	db	255
  2450                           tosu	equ	0x3FFF
  2451                           tosh	equ	0x3FFE
  2452                           tosl	equ	0x3FFD
  2453                           stkptr	equ	0x3FFC
  2454                           pclatu	equ	0x3FFB
  2455                           pclath	equ	0x3FFA
  2456                           pcl	equ	0x3FF9
  2457                           tblptru	equ	0x3FF8
  2458                           tblptrh	equ	0x3FF7
  2459                           tblptrl	equ	0x3FF6
  2460                           tablat	equ	0x3FF5
  2461                           prodh	equ	0x3FF4
  2462                           prodl	equ	0x3FF3
  2463                           indf0	equ	0x3FEF
  2464                           postinc0	equ	0x3FEE
  2465                           postdec0	equ	0x3FED
  2466                           preinc0	equ	0x3FEC
  2467                           plusw0	equ	0x3FEB
  2468                           fsr0h	equ	0x3FEA
  2469                           fsr0l	equ	0x3FE9
  2470                           wreg	equ	0x3FE8
  2471                           indf1	equ	0x3FE7
  2472                           postinc1	equ	0x3FE6
  2473                           postdec1	equ	0x3FE5
  2474                           preinc1	equ	0x3FE4
  2475                           plusw1	equ	0x3FE3
  2476                           fsr1h	equ	0x3FE2
  2477                           fsr1l	equ	0x3FE1
  2478                           bsr	equ	0x3FE0
  2479                           indf2	equ	0x3FDF
  2480                           postinc2	equ	0x3FDE
  2481                           postdec2	equ	0x3FDD
  2482                           preinc2	equ	0x3FDC
  2483                           plusw2	equ	0x3FDB
  2484                           fsr2h	equ	0x3FDA
  2485                           fsr2l	equ	0x3FD9
  2486                           status	equ	0x3FD8

Data Sizes:
    Strings     0
    Constant    5
    Data        0
    BSS         768
    Persistent  2
    Stack       0

Auto Spaces:
    Space          Size  Autos    Used
    COMRAM           95     25      75
    BANK0           160      0       0
    BANK1           256      0       0
    BANK2           256      0       0
    BANK3           256      0       0
    BANK4           256      0       0
    BANK5           256      0       0
    BANK6           256      0       0
    BANK7           256      0       0
    BANK8           256      0       0
    BANK9           256      0       0
    BANK10          256      0       0
    BANK11          256      0       0
    BANK12          256      0       0
    BANK13          256      0       0
    BANK14          256      0       0
    BANK15          256      0       0

Pointer List with Targets:

    DMA1_SetSCNTIInterruptHandler@InterruptHandler	PTR FTN()void  size(2) Largest target is 1
		 -> DMA1_DefaultInterruptHandler(), 

    DMA1_SCNTI_InterruptHandler	PTR FTN()void  size(2) Largest target is 1
		 -> Absolute function(), DMA1_DefaultInterruptHandler(), 


Critical Paths under _main in COMRAM

    _main->___wmul
    _SYSTEM_Initialize->_DMA1_Initialize
    _DMA1_Initialize->_DMA1_SetSCNTIInterruptHandler

Critical Paths under _INTERRUPT_InterruptManager in COMRAM

    _DMA1_DMASCNTI_ISR->_DMA1_DefaultInterruptHandler
    _DMA1_DefaultInterruptHandler->i2___wmul

Critical Paths under _main in BANK0

    None.

Critical Paths under _INTERRUPT_InterruptManager in BANK0

    None.

Critical Paths under _main in BANK1

    None.

Critical Paths under _INTERRUPT_InterruptManager in BANK1

    None.

Critical Paths under _main in BANK2

    None.

Critical Paths under _INTERRUPT_InterruptManager in BANK2

    None.

Critical Paths under _main in BANK3

    None.

Critical Paths under _INTERRUPT_InterruptManager in BANK3

    None.

Critical Paths under _main in BANK4

    None.

Critical Paths under _INTERRUPT_InterruptManager in BANK4

    None.

Critical Paths under _main in BANK5

    None.

Critical Paths under _INTERRUPT_InterruptManager in BANK5

    None.

Critical Paths under _main in BANK6

    None.

Critical Paths under _INTERRUPT_InterruptManager in BANK6

    None.

Critical Paths under _main in BANK7

    None.

Critical Paths under _INTERRUPT_InterruptManager in BANK7

    None.

Critical Paths under _main in BANK8

    None.

Critical Paths under _INTERRUPT_InterruptManager in BANK8

    None.

Critical Paths under _main in BANK9

    None.

Critical Paths under _INTERRUPT_InterruptManager in BANK9

    None.

Critical Paths under _main in BANK10

    None.

Critical Paths under _INTERRUPT_InterruptManager in BANK10

    None.

Critical Paths under _main in BANK11

    None.

Critical Paths under _INTERRUPT_InterruptManager in BANK11

    None.

Critical Paths under _main in BANK12

    None.

Critical Paths under _INTERRUPT_InterruptManager in BANK12

    None.

Critical Paths under _main in BANK13

    None.

Critical Paths under _INTERRUPT_InterruptManager in BANK13

    None.

Critical Paths under _main in BANK14

    None.

Critical Paths under _INTERRUPT_InterruptManager in BANK14

    None.

Critical Paths under _main in BANK15

    None.

Critical Paths under _INTERRUPT_InterruptManager in BANK15

    None.

Call Graph Tables:

 ---------------------------------------------------------------------------------
 (Depth) Function   	        Calls       Base Space   Used Autos Params    Refs
 ---------------------------------------------------------------------------------
 (0) _main                                                 5     5      0    1094
                                             20 COMRAM     5     5      0
                  _SYSTEM_Initialize
            _TMR2_HasOverflowOccured
                             ___wmul
 ---------------------------------------------------------------------------------
 (1) ___wmul                                               6     2      4     815
                                             14 COMRAM     6     2      4
 ---------------------------------------------------------------------------------
 (1) _TMR2_HasOverflowOccured                              1     1      0      45
                                             14 COMRAM     1     1      0
 ---------------------------------------------------------------------------------
 (1) _SYSTEM_Initialize                                    0     0      0      98
                    _CLC2_Initialize
                    _DMA1_Initialize
               _INTERRUPT_Initialize
              _OSCILLATOR_Initialize
             _PIN_MANAGER_Initialize
                     _PMD_Initialize
                    _PWM5_Initialize
                    _SPI1_Initialize
           _SystemArbiter_Initialize
                    _TMR0_Initialize
                    _TMR2_Initialize
 ---------------------------------------------------------------------------------
 (2) _TMR2_Initialize                                      0     0      0       0
 ---------------------------------------------------------------------------------
 (2) _TMR0_Initialize                                      0     0      0       0
 ---------------------------------------------------------------------------------
 (2) _SystemArbiter_Initialize                             0     0      0       0
 ---------------------------------------------------------------------------------
 (2) _SPI1_Initialize                                      0     0      0       0
 ---------------------------------------------------------------------------------
 (2) _PWM5_Initialize                                      0     0      0       0
 ---------------------------------------------------------------------------------
 (2) _PMD_Initialize                                       0     0      0       0
 ---------------------------------------------------------------------------------
 (2) _PIN_MANAGER_Initialize                               0     0      0       0
 ---------------------------------------------------------------------------------
 (2) _OSCILLATOR_Initialize                                0     0      0       0
 ---------------------------------------------------------------------------------
 (2) _INTERRUPT_Initialize                                 0     0      0       0
 ---------------------------------------------------------------------------------
 (2) _DMA1_Initialize                                      1     1      0      98
                                             16 COMRAM     1     1      0
      _DMA1_SetSCNTIInterruptHandler
 ---------------------------------------------------------------------------------
 (3) _DMA1_SetSCNTIInterruptHandler                        2     0      2      98
                                             14 COMRAM     2     0      2
 ---------------------------------------------------------------------------------
 (2) _CLC2_Initialize                                      0     0      0       0
 ---------------------------------------------------------------------------------
 Estimated maximum stack depth 3
 ---------------------------------------------------------------------------------
 (Depth) Function   	        Calls       Base Space   Used Autos Params    Refs
 ---------------------------------------------------------------------------------
 (4) _INTERRUPT_InterruptManager                           2     2      0     354
                                             12 COMRAM     2     2      0
                  _DMA1_DMASCNTI_ISR
 ---------------------------------------------------------------------------------
 (5) _DMA1_DMASCNTI_ISR                                    0     0      0     354
                   Absolute function *
       _DMA1_DefaultInterruptHandler *
 ---------------------------------------------------------------------------------
 (6) _DMA1_DefaultInterruptHandler                         6     6      0     354
                                              6 COMRAM     6     6      0
                           i2___wmul
 ---------------------------------------------------------------------------------
 (7) i2___wmul                                             6     2      4     263
                                              0 COMRAM     6     2      4
 ---------------------------------------------------------------------------------
 (6) Absolute function(Fake)                               0     0      0       0
 ---------------------------------------------------------------------------------
 Estimated maximum stack depth 7
 ---------------------------------------------------------------------------------

 Call Graph Graphs:

 _main (ROOT)
   _SYSTEM_Initialize
     _CLC2_Initialize
     _DMA1_Initialize
       _DMA1_SetSCNTIInterruptHandler
     _INTERRUPT_Initialize
     _OSCILLATOR_Initialize
     _PIN_MANAGER_Initialize
     _PMD_Initialize
     _PWM5_Initialize
     _SPI1_Initialize
     _SystemArbiter_Initialize
     _TMR0_Initialize
     _TMR2_Initialize
   _TMR2_HasOverflowOccured
   ___wmul

 _INTERRUPT_InterruptManager (ROOT)
   _DMA1_DMASCNTI_ISR
     Absolute function(Fake) *
     _DMA1_DefaultInterruptHandler *
       i2___wmul

 Address spaces:
Name               Size   Autos  Total    Cost      Usage
BIGRAM             FFF      0     2D0      72       17.6%
EEDATA             400      0       0       0        0.0%
BITBIGSFRhhhhhl    242      0       0      42        0.0%
BITBIGSFRllll      192      0       0      70        0.0%
BITBIGSFRhhhhhl    10E      0       0      49        0.0%
BITBANK15          100      0       0      34        0.0%
BANK15             100      0       0      35        0.0%
BITBANK14          100      0       0      32        0.0%
BANK14             100      0       0      33        0.0%
BITBANK13          100      0       0      30        0.0%
BANK13             100      0       0      31        0.0%
BITBANK12          100      0       0      28        0.0%
BANK12             100      0       0      29        0.0%
BITBANK11          100      0       0      26        0.0%
BANK11             100      0       0      27        0.0%
BITBANK10          100      0       0      24        0.0%
BANK10             100      0       0      25        0.0%
BITBANK9           100      0       0      22        0.0%
BANK9              100      0       0      23        0.0%
BITBANK8           100      0       0      20        0.0%
BANK8              100      0       0      21        0.0%
BITBANK7           100      0       0      18        0.0%
BANK7              100      0       0      19        0.0%
BITBANK6           100      0       0      16        0.0%
BANK6              100      0       0      17        0.0%
BITBANK5           100      0       0      14        0.0%
BANK5              100      0       0      15        0.0%
BITBANK4           100      0       0      12        0.0%
BANK4              100      0       0      13        0.0%
BITBANK3           100      0       0      10        0.0%
BANK3              100      0       0      11        0.0%
BITBANK2           100      0       0       8        0.0%
BANK2              100      0       0       9        0.0%
BITBANK1           100      0       0       6        0.0%
BANK1              100      0       0       7        0.0%
BITBANK0            A0      0       0       4        0.0%
BANK0               A0      0       0       5        0.0%
BITBIGSFRhhhhhl     9D      0       0      46        0.0%
BITBIGSFRhhhhhl     6A      0       0      47        0.0%
BITCOMRAM           5F      0       0       0        0.0%
COMRAM              5F     19      4B       1       78.9%
BITBIGSFRhhhhhl     54      0       0      51        0.0%
BITBIGSFRhhhhhl     3B      0       0      40        0.0%
BITBIGSFRhhhhhh     2D      0       0      36        0.0%
BITBIGSFRhhhhhl     2C      0       0      59        0.0%
BITBIGSFRllhh       1B      0       0      68        0.0%
BITBIGSFRhhhhhl     18      0       0      61        0.0%
BITBIGSFRlh         11      0       0      67        0.0%
BITBIGSFRlllh        F      0       0      69        0.0%
BITBIGSFRhhhhl       F      0       0      64        0.0%
BITBIGSFRhhhhhl      C      0       0      41        0.0%
BITBIGSFRhhhhhl      B      0       0      58        0.0%
BITBIGSFRhhhhhh      B      0       0      37        0.0%
BITBIGSFRhhhhhl      6      0       0      39        0.0%
BITBIGSFRhhhhhl      5      0       0      48        0.0%
BITBIGSFRhhhhhl      5      0       0      57        0.0%
BITBIGSFRhhhhhl      5      0       0      55        0.0%
BITBIGSFRhhhhhl      5      0       0      53        0.0%
BITBIGSFRhhhhhl      4      0       0      50        0.0%
BITBIGSFRhhhhhl      4      0       0      52        0.0%
BITBIGSFRhhhhhl      4      0       0      54        0.0%
BITBIGSFRhhhhhl      4      0       0      56        0.0%
BITBIGSFRhhhhhh      3      0       0      38        0.0%
BITBIGSFRhhhhhl      2      0       0      44        0.0%
BITBIGSFRhhhhhl      2      0       0      62        0.0%
BITBIGSFRhhhhhl      2      0       0      45        0.0%
BITBIGSFRhhhhhl      2      0       0      60        0.0%
BITBIGSFRhhhhhl      1      0       0      43        0.0%
BITBIGSFRhhhhhl      1      0       0      63        0.0%
BITBIGSFRhhl         1      0       0      65        0.0%
BITBIGSFRhl          1      0       0      66        0.0%
BIGSFR               0      0       0     200        0.0%
BITSFR_8             0      0       0     200        0.0%
SFR_8                0      0       0     200        0.0%
BITSFR_7             0      0       0     200        0.0%
SFR_7                0      0       0     200        0.0%
BITSFR_6             0      0       0     200        0.0%
SFR_6                0      0       0     200        0.0%
BITSFR_5             0      0       0     200        0.0%
SFR_5                0      0       0     200        0.0%
BITSFR_4             0      0       0     200        0.0%
SFR_4                0      0       0     200        0.0%
BITSFR_3             0      0       0     200        0.0%
SFR_3                0      0       0     200        0.0%
BITSFR_2             0      0       0     200        0.0%
SFR_2                0      0       0     200        0.0%
BITSFR_1             0      0       0     200        0.0%
SFR_1                0      0       0     200        0.0%
BITSFR               0      0       0     200        0.0%
SFR                  0      0       0     200        0.0%
STACK                0      0       0       2        0.0%
NULL                 0      0       0       0        0.0%
ABS                  0      0      4B      71        0.0%
DATA                 0      0     31B       3        0.0%
CODE                 0      0       0       0        0.0%


Microchip Technology PIC18 Macro Assembler V2.36 build 20220127204148 
Symbol Table                                                                                   Mon Dec 19 11:17:20 2022

                                           l62 159C                                             l65 1534  
                                           l59 1464                                             l68 15C0  
                          ___wmul@multiplicand 0041                                            l221 1362  
                                          l230 15CA                                            l223 1398  
                                          l314 14BC                                            l219 1340  
                                          l163 12F6                                            l253 1584  
                                          l413 14E6                                            l342 15CE  
                                          l270 156C                                            l327 15B2  
                                          l291 1490                                            l287 1552  
                                          l399 10A2                                            u210 10A2  
                                          u211 109E                                            u220 10F2  
                                          u221 10EE                                            u230 110A  
                                          u231 1106                                            u240 112A  
                                          u241 1126                                            u170 1478  
                                          u171 1472                                            u180 148C  
                                          u181 1488                                            u176 147A  
                                          u257 10AC                                _TMR2_Initialize 1536  
                            ??_CLC2_Initialize 003F                                            tosl 003FFD  
                                          wreg 003FE8                  TMR2_HasOverflowOccured@status 003F  
                                         l1400 12F8                                           l1410 131E  
                                         l1402 12FE                                           l1420 1336  
                                         l1412 1322                                           l1404 130A  
                                         l1430 1356                                           l1422 133A  
                                         l1414 132A                                           l1406 1312  
                                         l1440 1376                                           l1432 135A  
                                         l1424 133E                                           l1416 1332  
                                         l1408 1316                                           l1520 1440  
                                         l1600 112E                                           l1450 1380  
                                         l1442 1378                                           l1434 135E  
                                         l1426 134C                                           l1418 1334  
                                         l1370 1256                                           l1530 1454  
                                         l1522 1444                                           l1602 1146  
                                         l1452 138C                                           l1444 137A  
                                         l1436 136E                                           l1428 1352  
                                         l1380 1280                                           l1372 126E  
                                         l1460 156E                                           l1532 1458  
                                         l1524 1448                                           l1516 1438  
                                         l1604 1148                                           l1358 15C2  
                                         l1454 1390                                           l1446 137C  
                                         l1438 1372                                           l1366 15CC  
                                         l1390 12D6                                           l1382 12CA  
                                         l1374 1270                                           l1470 1554  
                                         l1462 1536                                           l1534 145C  
                                         l1526 144C                                           l1518 143C  
                                         l1606 114A                                           l1456 1392  
                                         l1448 137E                                           l1392 12D8  
                                         l1384 12CC                                           l1376 1276  
                                         l1368 1512                                           l1472 156A  
                                         l1464 154A                                           l1536 1460  
                                         l1528 1450                                           l1544 1466  
                                         l1552 14BE                                           l1458 1492  
                                         l1394 12DA                                           l1386 12CE  
                                         l1378 1278                                           l1474 15B4  
                                         l1466 159E                                           l1546 148C  
                                         l1554 14DE                                           l1396 12DC  
                                         l1388 12D0                                           l1476 15BE  
                                         l1468 15AA                                           l1548 148E  
                                         l1580 10A6                                           l1564 1008  
                                         l1398 1586                                           l1590 10D6  
                                         l1582 10B4                                           l1574 1016  
                                         l1566 100C                                           l1592 10DE  
                                         l1584 10B6                                           l1576 1082  
                                         l1568 100E                                           l1594 10F2  
                                         l1586 10C6                                           l1578 1086  
                                         l1596 110A                                           l1588 10C6  
                                         l1598 112A                                           _LATA 003FBA  
                                         _LATB 003FBB                                           _LATC 003FBC  
                                         _LATD 003FBD                                           _LATE 003FBE  
                                         _T2PR 003FAB                                           _PMD0 0039C0  
                                         _PMD1 0039C1                                           _PMD2 0039C2  
                                         _PMD3 0039C3                                           _PMD4 0039C4  
                                         _PMD5 0039C5                                           _PMD6 0039C6  
                                         _PMD7 0039C7                                           _WPUA 003A41  
                                         _WPUB 003A51                                           _WPUC 003A61  
                                         _WPUD 003A71                                           _WPUE 003A81  
                                         _main 1008                                           fsr1h 003FE2  
                                         indf2 003FDF                                           fsr1l 003FE1  
                                         fsr2l 003FD9                                           prodh 003FF4  
                                         prodl 003FF3                                           start 001A  
                              _PWM5_Initialize 156E                                   ___param_bank 000000  
                      __end_of_TMR0_Initialize 15B4                  __end_of_OSCILLATOR_Initialize 159E  
                                        PRLOCK 0039EF                                          ?_main 0031  
                                        _T2CON 003FAC                                          _T2HLT 003FAD  
                                        _T2TMR 003FAA                                          _T2RST 003FAF  
                                        i2l242 1254                                          i2l227 1436  
                                        i2l236 1158                                          i2l413 1510  
                                        i2l349 13C8                                          _ISRPR 0039F1  
                                        _OSCEN 0039DD                                          _TMR0H 003FB7  
                                        _TMR0L 003FB6                                          _TRISA 003FC2  
                                        _TRISB 003FC3                                          _TRISC 003FC4  
                                        _TRISD 003FC5                                          _TRISE 003FC6  
                                 _DMA1CON0bits 003BFC                                   _DMA1CON1bits 003BFD  
                                        _l_red 002E                                          pclath 003FFA  
                                        pclatu 003FFB                               __end_ofi2___wmul 1512  
                                        status 003FD8                                __initialization 13D6  
                                 __end_of_main 1154                        __end_of_TMR2_Initialize 1554  
                  ?_INTERRUPT_InterruptManager 0031                                         ??_main 0045  
                                __activetblptr 000003                                         _DMA1PR 0039F3  
                                       _DMA2PR 0039F4                                         _ANSELA 003A40  
                                       _ANSELB 003A50                                         _ANSELC 003A60  
                                       _ANSELD 003A70                                         _ANSELE 003A80  
                                       _T0CON0 003FB8                                         _T0CON1 003FB9  
                                       _RB1I2C 003A5A                                         _RB2I2C 003A5B  
                                       _RD0I2C 003A7A                                         _RD1I2C 003A7B  
                                       _RC3I2C 003A6A                                         _RC4I2C 003A6B  
                                       _MAINPR 0039F2                                         _RC0PPS 003A10  
                                       _RC3PPS 003A13                                         _ODCONA 003A42  
                                       _ODCONB 003A52                                         _ODCONC 003A62  
                                       _ODCOND 003A72                                         _ODCONE 003A82  
                      __end_of_PWM5_Initialize 1586                                         i2l1500 1210  
                                       i2l1502 1212                                         i2l1510 122A  
                                       i2l1360 14E8                                         i2l1504 1218  
                                       i2l1362 1508                                         i2l1506 1220  
                                       i2l1540 140C                                         i2l1542 141E  
                                       i2l1480 115E                                         i2l1560 13B6  
                                       i2l1490 11CA                                         i2l1482 1166  
                                       i2l1538 1408                                         i2l1562 13C4  
                                       i2l1628 123E                                         i2l1492 11D6  
                                       i2l1484 119A                                         i2l1486 11A2  
                                       i2l1478 1154                                         i2l1558 13A6  
                                       i2l1496 11EC                                         i2l1488 11AE  
                                       i2l1498 120C                                         _INLVLA 003A44  
                                       _INLVLB 003A54                                         _INLVLC 003A64  
                                       _INLVLD 003A74                                         _INLVLE 003A84  
                                       _SCANPR 0039F7                                         _OSCFRQ 0039DF  
                                       _PRLOCK 0039EF                                         _Ball_1 0001  
              ??_DMA1_SetSCNTIInterruptHandler 0041                                   _CCPTMRS1bits 003F5F  
                                       ___wmul 14BE                                         _l_blue 002D  
                             ?_TMR0_Initialize 0031                                         clear_0 13DE  
                                       clear_1 13F0                                         isa$std 000001  
                                       main@ix 0048                                    _DstVarName0 000C  
                     ?_TMR2_HasOverflowOccured 0031                                 _PMD_Initialize 1512  
                                 __mediumconst 0000  DMA1_SetSCNTIInterruptHandler@InterruptHandler 003F  
                            _SYSTEM_Initialize 1438                                     __accesstop 0060  
                      __end_of__initialization 1402                             ?_SYSTEM_Initialize 0031  
                                ___rparam_used 000001                              ??_DMA1_Initialize 0041  
                               __pcstackCOMRAM 0031                            ??_SYSTEM_Initialize 0042  
                        main@m_calib_milli_sec 0046                                _CLC2_Initialize 1492  
                            ??_SPI1_Initialize 003F                               ?_TMR2_Initialize 0031  
                       __end_of_PMD_Initialize 1536                                      ?i2___wmul 0031  
                           _spi1_configuration 1001                    _DMA1_SCNTI_InterruptHandler 004A  
                    __end_of_SYSTEM_Initialize 1466                               ?_PWM5_Initialize 0031  
                     _SystemArbiter_Initialize 15B4                                     __pnvCOMRAM 004A  
                                      IVTBASEH 003FD6                                        IVTBASEL 003FD5  
                                      IVTBASEU 003FD7                                        ?___wmul 003F  
                                   _demo_state 002C          __end_of_DMA1_SetSCNTIInterruptHandler 15CC  
                _DMA1_SetSCNTIInterruptHandler 15C2                __end_of_TMR2_HasOverflowOccured 1492  
                                      _CLC2CON 003C6A                                        _CLC2POL 003C6B  
                                      _DMA1DSA 003BF0                                        _DMA1DSZ 003BEE  
                                      _DMA1SSA 003BF9                                        _DMA1SSZ 003BF7  
                              ?_PMD_Initialize 0031                                     ??i2___wmul 0035  
                                      _OSCCON1 0039D9                                        _OSCCON3 0039DB  
                                      _SPI1CLK 003D1C                                        i2u20_40 13C4  
                                      i2u20_41 13C0                                        i2u13_40 11CA  
                                      i2u13_41 11C6                                        i2u14_40 11E8  
                                      i2u14_41 11E4                                        i2u15_40 141E  
                                      i2u15_41 141A                                        i2u16_48 1424  
                                      i2u16_49 1436                                        i2u19_40 13B6  
                                      i2u19_41 13B2                                        _SPI1TXB 003D11  
                                      _OSCTUNE 0039DE           DMA1_DefaultInterruptHandler@dma_size 003B  
                                      _PWM5DCH 003F6D                                        _PWM5DCL 003F6C  
                                      _PWM5CON 003F6E                                        _SLRCONA 003A43  
                                      _SLRCONB 003A53                                        _SLRCONC 003A63  
                                      _SLRCOND 003A73                                        _SLRCONE 003A83  
                      __end_of_CLC2_Initialize 14BE                                      _CLCIN0PPS 003AD9  
                                      __Hparam 0000                                    _SrcVarName0 0016  
                                      __Lparam 0000                                   __psmallconst 1000  
                                      __pcinit 13D6                                        __ramtop 1000  
                                      __ptext0 1008                                        __ptext1 14BE  
                                      __ptext2 1466                                        __ptext3 1438  
                                      __ptext4 1536                                        __ptext5 159E  
                                      __ptext6 15B4                                        __ptext7 1554  
                                      __ptext8 156E                                        __ptext9 1512  
                                      _l_green 002F                          _OSCILLATOR_Initialize 1586  
                     ??_PIN_MANAGER_Initialize 003F                           end_of_initialization 1402  
                          i2___wmul@multiplier 0031                                        postdec1 003FE5  
                                      postinc0 003FEE                 ?_DMA1_SetSCNTIInterruptHandler 003F  
                                    _TRISCbits 003FC4                                _DMA1_Initialize 12F8  
               ??_DMA1_DefaultInterruptHandler 0037                                _SPI1_Initialize 1554  
            DMA1_DefaultInterruptHandler@check 0039                               ?_CLC2_Initialize 0031  
                 __end_of_INTERRUPT_Initialize 15D0                                 __end_of___wmul 14E8  
                       ?_OSCILLATOR_Initialize 0031                               i2___wmul@product 0035  
                          start_initialization 13D6                     ??_SystemArbiter_Initialize 003F  
                                   ivt0x8_base 0008                              _m_milli_sec_count 0020  
                             ??_PMD_Initialize 003F                                       ??___wmul 0043  
                                  __pbssBIGRAM 0D30                        __end_of_DMA1_Initialize 139A  
                                  __pbssCOMRAM 0001                        __end_of_SPI1_Initialize 156E  
                       _PIN_MANAGER_Initialize 1256                                    _demo_length 0028  
                                 _MyPixelArray 0D30                   ??_INTERRUPT_InterruptManager 003D  
                                  __smallconst 1000                                       _CLC2GLS0 003C70  
                                     _CLC2GLS1 003C71                                       _CLC2GLS2 003C72  
                                     _CLC2GLS3 003C73                                       _CLC2SEL0 003C6C  
                                     _CLC2SEL1 003C6D                                       _CLC2SEL2 003C6E  
                                     _CLC2SEL3 003C6F                                       _DMA1CON0 003BFC  
                                     _DMA1AIRQ 003BFE                                       _DMA1SIRQ 003BFF  
                                     _T2CLKCON 003FAE                              _DMA1_DMASCNTI_ISR 1408  
                         _INTERRUPT_Initialize 15CC                        _TMR2_HasOverflowOccured 1466  
                                    _int_state 0030                             ?_DMA1_DMASCNTI_ISR 0031  
                            ??_TMR0_Initialize 003F                                 ___wmul@product 0043  
                                     _LATCbits 003FBC                                       _PIE2bits 003992  
                                     _PIR2bits 0039A2                                       _SPI1BAUD 003D19  
                          ??_DMA1_DMASCNTI_ISR 003D                                       _PIR3bits 0039A3  
                                     _PIR4bits 0039A4                                       _SPI1CON0 003D14  
                                     _SPI1CON1 003D15                                       _SPI1CON2 003D16  
                                 _SPI1INTFbits 003D1A                              ___wmul@multiplier 003F  
        DMA1_DefaultInterruptHandler@led_index 002A                                       i2___wmul 14E8  
             __end_of_SystemArbiter_Initialize 15C2                               ?_DMA1_Initialize 0031  
                    __end_of_DMA1_DMASCNTI_ISR 1438                               ?_SPI1_Initialize 0031  
                                  _INTCON0bits 003FD2                          ?_INTERRUPT_Initialize 0031  
                            ??_TMR2_Initialize 003F                               _m_milli_sec_time 0024  
                                     __Hrparam 0000                                       __Lrparam 0000  
                      ??_OSCILLATOR_Initialize 003F                          i2___wmul@multiplicand 0033  
                            ??_PWM5_Initialize 003F                                       __pivt0x8 0008  
                    ??_TMR2_HasOverflowOccured 003F                                       __ptext10 1256  
                                     __ptext11 1586                                       __ptext20 0000  
                                     __ptext12 15CC                                       __ptext13 12F8  
                                     __ptext14 15C2                                       __ptext15 1492  
                                     __ptext16 139A                                       __ptext17 1408  
                                     __ptext18 1154                                       __ptext19 14E8  
                                     isa$xinst 000000             __end_of_INTERRUPT_InterruptManager 13D6  
                   _INTERRUPT_InterruptManager 139A           __end_of_DMA1_DefaultInterruptHandler 1256  
                 _DMA1_DefaultInterruptHandler 1154                         ??_INTERRUPT_Initialize 003F  
                                     intlevel2 0000                        ?_PIN_MANAGER_Initialize 0031  
                    ?_SystemArbiter_Initialize 0031                                     _SPI1SDIPPS 003ADF  
                                   _SPI1SCKPPS 003ADE                                     _PRLOCKbits 0039EF  
              fp__DMA1_DefaultInterruptHandler 0000                  ?_DMA1_DefaultInterruptHandler 0031  
                              _TMR0_Initialize 159E                 __end_of_PIN_MANAGER_Initialize 12F8  
                   __end_of_spi1_configuration 1006  
